


ARM Macro Assembler    Page 1 


    1 00000000         ;;;;;;;;;;;;;;;;;;;;;;;;;;;;;;;;;;;;;;;;;;;;;;;;;;;;;;;;
                       ;;;;;;;;;;;;;;;;;;;;;;;;
    2 00000000         ; Copyright (C) 2018 Maxim Integrated Products, Inc., Al
                       l Rights Reserved.
    3 00000000         ;
    4 00000000         ; Permission is hereby granted, free of charge, to any p
                       erson obtaining a
    5 00000000         ; copy of this software and associated documentation fil
                       es (the "Software"),
    6 00000000         ; to deal in the Software without restriction, including
                        without limitation
    7 00000000         ; the rights to use, copy, modify, merge, publish, distr
                       ibute, sublicense,
    8 00000000         ; and/or sell copies of the Software, and to permit pers
                       ons to whom the
    9 00000000         ; Software is furnished to do so, subject to the followi
                       ng conditions:
   10 00000000         ;
   11 00000000         ; The above copyright notice and this permission notice 
                       shall be included
   12 00000000         ; in all copies or substantial portions of the Software.
                       
   13 00000000         ;
   14 00000000         ; THE SOFTWARE IS PROVIDED "AS IS", WITHOUT WARRANTY OF 
                       ANY KIND, EXPRESS
   15 00000000         ; OR IMPLIED, INCLUDING BUT NOT LIMITED TO THE WARRANTIE
                       S OF
   16 00000000         ; MERCHANTABILITY, FITNESS FOR A PARTICULAR PURPOSE AND 
                       NONINFRINGEMENT.
   17 00000000         ; IN NO EVENT SHALL MAXIM INTEGRATED BE LIABLE FOR ANY C
                       LAIM, DAMAGES
   18 00000000         ; OR OTHER LIABILITY, WHETHER IN AN ACTION OF CONTRACT, 
                       TORT OR OTHERWISE,
   19 00000000         ; ARISING FROM, OUT OF OR IN CONNECTION WITH THE SOFTWAR
                       E OR THE USE OR
   20 00000000         ; OTHER DEALINGS IN THE SOFTWARE.
   21 00000000         ;
   22 00000000         ; Except as contained in this notice, the name of Maxim 
                       Integrated
   23 00000000         ; Products, Inc. shall not be used except as stated in t
                       he Maxim Integrated
   24 00000000         ; Products, Inc. Branding Policy.
   25 00000000         ;
   26 00000000         ; The mere transfer of this software does not imply any 
                       licenses
   27 00000000         ; of trade secrets, proprietary technology, copyrights, 
                       patents,
   28 00000000         ; trademarks, maskwork rights, or any other form of inte
                       llectual
   29 00000000         ; property whatsoever. Maxim Integrated Products, Inc. r
                       etains all
   30 00000000         ; ownership rights.
   31 00000000         ;
   32 00000000         ; $Date: 2020-01-15 14:54:54 -0600 (Wed, 15 Jan 2020) $
   33 00000000         ; $Revision: 50656 $
   34 00000000         ;;;;;;;;;;;;;;;;;;;;;;;;;;;;;;;;;;;;;;;;;;;;;;;;;;;;;;;;
                       ;;;;;;;;;;;;;;;;;;;;;;;
   35 00000000         
   36 00000000         ; To map FreeRTOS function names to their CMSIS equivale



ARM Macro Assembler    Page 2 


                       nts add following lines to FreeRTOSConfig.h
   37 00000000         ; #define vPortSVCHandler SVC_Handler
   38 00000000         ; #define xPortPendSVHandler PendSV_Handler
   39 00000000         ; #define xPortSysTickHandler SysTick_Handler
   40 00000000         ; *------- <<< Use Configuration Wizard in Context Menu 
                       to Modify Stack Size and Heap Size. >>> ----
   41 00000000         
   42 00000000         ; <h> Stack Configuration
   43 00000000         ;   <o> Stack Size (in Bytes) <0x0-0xFFFFFFFF:8>
   44 00000000         ; </h>
   45 00000000         
   46 00000000 00008000 
                       Stack_Size
                               EQU              0x00008000
   47 00000000         
   48 00000000                 AREA             STACK, NOINIT, READWRITE, ALIGN
=3
   49 00000000         __stack_limit
   50 00000000         Stack_Mem
                               SPACE            Stack_Size
   51 00008000         __initial_sp                         ; ARMCC: name is se
                                                            t to work with Micr
                                                            oLib
   52 00008000         
   53 00008000         
   54 00008000         ; <h> Heap Configuration
   55 00008000         ;   <o>  Heap Size (in Bytes) <0x0-0xFFFFFFFF:8>
   56 00008000         ; </h>
   57 00008000         
   58 00008000 00008000 
                       Heap_Size
                               EQU              0x00008000
   59 00008000         
   60 00008000                 AREA             HEAP, NOINIT, READWRITE, ALIGN=
3
   61 00000000         __heap_base
   62 00000000         Heap_Mem
                               SPACE            Heap_Size
   63 00008000         __heap_limit
   64 00008000         
   65 00008000                 PRESERVE8
   66 00008000                 THUMB
   67 00008000         
   68 00008000         
   69 00008000         ; Vector Table Mapped to Address 0 at Reset
   70 00008000         
   71 00008000                 AREA             RESET, DATA, READONLY
   72 00000000                 EXPORT           __Vectors
   73 00000000                 EXPORT           __Vectors_End
   74 00000000                 EXPORT           __Vectors_Size
   75 00000000                 EXPORT           __isr_vector
   76 00000000                 IMPORT           SysTick_Handler
   77 00000000         ; Core Level - CM4
   78 00000000         ; Most names are to help the FreeRTOS port.
   79 00000000         
   80 00000000 00000000 
                       __isr_vector
                               DCD              __initial_sp ; Top of Stack
   81 00000004 00000000        DCD              Reset_Handler ; Reset Handler



ARM Macro Assembler    Page 3 


   82 00000008 00000000        DCD              NMI_Handler ; NMI Handler
   83 0000000C 00000000        DCD              HardFault_Handler ; Hard Fault 
                                                            Handler
   84 00000010 00000000        DCD              MemManage_Handler 
                                                            ; MPU Fault Handler
                                                            
   85 00000014 00000000        DCD              BusFault_Handler 
                                                            ; Bus Fault Handler
                                                            
   86 00000018 00000000        DCD              UsageFault_Handler ; Usage Faul
                                                            t Handler
   87 0000001C 00000000        DCD              0           ; Reserved
   88 00000020 00000000        DCD              0           ; Reserved
   89 00000024 00000000        DCD              0           ; Reserved
   90 00000028 00000000        DCD              0           ; Reserved
   91 0000002C 00000000        DCD              SVC_Handler ; SVCall Handler
   92 00000030 00000000        DCD              DebugMon_Handler ; Debug Monito
                                                            r Handler
   93 00000034 00000000        DCD              0           ; Reserved
   94 00000038 00000000        DCD              PendSV_Handler ; PendSV Handler
                                                            
   95 0000003C 00000000        DCD              SysTick_Handler 
                                                            ; SysTick Handler
   96 00000040         
   97 00000040         ; MAX32665 Device-specific Interrupts
   98 00000040 00000000        DCD              PF_IRQHandler ; 0x10  0x0040  1
                                                            6: Power Fail 
   99 00000044 00000000        DCD              WDT0_IRQHandler ; 0x11  0x0044 
                                                             17: Watchdog 0 
  100 00000048 00000000        DCD              RSV02_IRQHandler ; 0x12  0x0048
                                                              18: Reserved 
  101 0000004C 00000000        DCD              RTC_IRQHandler ; 0x13  0x004C  
                                                            19: RTC 
  102 00000050 00000000        DCD              TRNG_IRQHandler ; 0x14  0x0050 
                                                             20: True Random Nu
                                                            mber Generator 
  103 00000054 00000000        DCD              TMR0_IRQHandler ; 0x15  0x0054 
                                                             21: Timer 0 
  104 00000058 00000000        DCD              TMR1_IRQHandler ; 0x16  0x0058 
                                                             22: Timer 1 
  105 0000005C 00000000        DCD              TMR2_IRQHandler ; 0x17  0x005C 
                                                             23: Timer 2 
  106 00000060 00000000        DCD              TMR3_IRQHandler ; 0x18  0x0060 
                                                             24: Timer 3
  107 00000064 00000000        DCD              TMR4_IRQHandler ; 0x19  0x0064 
                                                             25: Timer 4
  108 00000068 00000000        DCD              TMR5_IRQHandler ; 0x1A  0x0068 
                                                             26: Timer 5 
  109 0000006C 00000000        DCD              RSV11_IRQHandler ; 0x1B  0x006C
                                                              27: Reserved 
  110 00000070 00000000        DCD              RSV12_IRQHandler ; 0x1C  0x0070
                                                              28: Reserved 
  111 00000074 00000000        DCD              I2C0_IRQHandler ; 0x1D  0x0074 
                                                             29: I2C0
  112 00000078 00000000        DCD              UART0_IRQHandler ; 0x1E  0x0078
                                                              30: UART 0 
  113 0000007C 00000000        DCD              UART1_IRQHandler ; 0x1F  0x007C
                                                              31: UART 1 
  114 00000080 00000000        DCD              SPI1_IRQHandler ; 0x20  0x0080 



ARM Macro Assembler    Page 4 


                                                             32: SPI1
  115 00000084 00000000        DCD              RSV17_IRQHandler ; 0x21  0x0084
                                                              33: Reserved */ 
  116 00000088 00000000        DCD              RSV18_IRQHandler ; 0x22  0x0088
                                                              34: Reserved */ 
  117 0000008C 00000000        DCD              RSV19_IRQHandler ; 0x23  0x008C
                                                              35: Reserved 
  118 00000090 00000000        DCD              ADC_IRQHandler ; 0x24  0x0090  
                                                            36: ADC
  119 00000094 00000000        DCD              RSV21_IRQHandler ; 0x25  0x0094
                                                              37: Reserved 
  120 00000098 00000000        DCD              RSV22_IRQHandler ; 0x26  0x0098
                                                              38: Reserved
  121 0000009C 00000000        DCD              FLC0_IRQHandler ; 0x27  0x009C 
                                                             39: Flash Controll
                                                            er 0
  122 000000A0 00000000        DCD              GPIO0_IRQHandler ; 0x28  0x00A0
                                                              40: GPIO0 
  123 000000A4 00000000        DCD              GPIO1_IRQHandler ; 0x29  0x00A4
                                                              41: GPIO1 
  124 000000A8 00000000        DCD              GPIO2_IRQHandler ; 0x2A  0x00A8
                                                              42: GPIO2
  125 000000AC 00000000        DCD              RSV27_IRQHandler ; 0x2B  0x00AC
                                                              43: Reserved
  126 000000B0 00000000        DCD              DMA0_IRQHandler ; 0x2C  0x00B0 
                                                             44: DMA0 
  127 000000B4 00000000        DCD              DMA1_IRQHandler ; 0x2D  0x00B4 
                                                             45: DMA1 
  128 000000B8 00000000        DCD              DMA2_IRQHandler ; 0x2E  0x00B8 
                                                             46: DMA2 
  129 000000BC 00000000        DCD              DMA3_IRQHandler ; 0x2F  0x00BC 
                                                             47: DMA3 
  130 000000C0 00000000        DCD              RSV32_IRQHandler ; 0x30  0x00C0
                                                              48: Reserved 
  131 000000C4 00000000        DCD              RSV33_IRQHandler ; 0x31  0x00C4
                                                              49: Reserved 
  132 000000C8 00000000        DCD              UART2_IRQHandler ; 0x32  0x00C8
                                                              50: UART 2 
  133 000000CC 00000000        DCD              RSV35_IRQHandler ; 0x33  0x00CC
                                                              51: Reserved 
  134 000000D0 00000000        DCD              I2C1_IRQHandler ; 0x34  0x00D0 
                                                             52: I2C1 
  135 000000D4 00000000        DCD              RSV37_IRQHandler ; 0x35  0x00D4
                                                              53: Reserved 
  136 000000D8 00000000        DCD              RSV38_IRQHandler ; 0x36  0x00D8
                                                              54: Reserved 
  137 000000DC 00000000        DCD              BTLE_TX_DONE_IRQHandler ; 0x37 
                                                             0x00DC  55: BTLE_T
                                                            X_DONE_IRQHandler 
  138 000000E0 00000000        DCD              BTLE_RX_RCVD_IRQHandler ; 0x38 
                                                             0x00E0  56: BTLE_R
                                                            X_RCVD_IRQHandler 
  139 000000E4 00000000        DCD              BTLE_RX_ENG_DET_IRQHandler ; 0x
                                                            39  0x00E4  57: BTL
                                                            E_RX_ENG_DET_IRQHan
                                                            dler 
  140 000000E8 00000000        DCD              BTLE_SFD_DET_IRQHandler ; 0x3A 
                                                             0x00E8  58: BTLE_S
                                                            FD_DET_IRQHandler 



ARM Macro Assembler    Page 5 


  141 000000EC 00000000        DCD              BTLE_SFD_TO_IRQHandler ; 0x3B  
                                                            0x00EC  59: BTLE_SF
                                                            D_TO_IRQHandler
  142 000000F0 00000000        DCD              BTLE_GP_EVENT_IRQHandler ; 0x3C
                                                              0x00F0  60: BTLE_
                                                            GP_EVENT_IRQHandler
                                                            
  143 000000F4 00000000        DCD              BTLE_CFO_IRQHandler ; 0x3D  0x0
                                                            0F4  61: BTLE_CFO_I
                                                            RQHandler 
  144 000000F8 00000000        DCD              BTLE_SIG_DET_IRQHandler ; 0x3E 
                                                             0x00F8  62: BTLE_S
                                                            IG_DET_IRQHandler 
  145 000000FC 00000000        DCD              BTLE_AGC_EVENT_IRQHandler ; 0x3
                                                            F  0x00FC  63: BTLE
                                                            _AGC_EVENT_IRQHandl
                                                            er 
  146 00000100 00000000        DCD              BTLE_RFFE_SPIM_IRQHandler ; 0x4
                                                            0  0x0100  64: BTLE
                                                            _RFFE_SPIM_IRQHandl
                                                            er 
  147 00000104 00000000        DCD              BTLE_TX_AES_IRQHandler ; 0x41  
                                                            0x0104  65: BTLE_TX
                                                            _AES_IRQHandler 
  148 00000108 00000000        DCD              BTLE_RX_AES_IRQHandler ; 0x42  
                                                            0x0108  66: BTLE_RX
                                                            _AES_IRQHandler 
  149 0000010C 00000000        DCD              BTLE_INV_APB_ADDR_IRQHandler ; 
                                                            0x43  0x010C  67: B
                                                            TLE_INV_APB_ADDR_IR
                                                            QHandler
  150 00000110 00000000        DCD              BTLE_IQ_DATA_VALID_IRQHandler ;
                                                             0x44  0x0110  68: 
                                                            BTLE_IQ_DATA_VALID_
                                                            IRQHandler
  151 00000114 00000000        DCD              WUT_IRQHandler ; 0x45  0x0114  
                                                            69: Wake up Timer 
  152 00000118 00000000        DCD              GPIOWAKE_IRQHandler ; 0x46  0x0
                                                            118  70: GPIO Wakeu
                                                            p
  153 0000011C 00000000        DCD              RSV55_IRQHandler ; 0x47  0x011C
                                                              71: Reserved 
  154 00000120 00000000        DCD              SPI0_IRQHandler ; 0x48  0x0120 
                                                             72: SPI 0 
  155 00000124 00000000        DCD              WDT1_IRQHandler ; 0x49  0x0124 
                                                             73: Watchdog 1 
  156 00000128 00000000        DCD              RSV57_IRQHandler ; 0x4A  0x0128
                                                              74: Reserved 
  157 0000012C 00000000        DCD              PT_IRQHandler ; 0x4B  0x012C  7
                                                            5: Pulse Train
  158 00000130 00000000        DCD              RSV59_IRQHandler ; 0x4C  0x0130
                                                              76: Reserved 
  159 00000134 00000000        DCD              RSV61_IRQHandler ; 0x4D  0x0134
                                                              77: Reserved 
  160 00000138 00000000        DCD              I2C2_IRQHandler ; 0x4E  0x0138 
                                                             78: I2C 2 
  161 0000013C 00000000        DCD              RISCV_IRQHandler ; 0x4F  0x013C
                                                              79: RISCV
  162 00000140 00000000        DCD              RSV64_IRQHandler ; 0x50  0x0140



ARM Macro Assembler    Page 6 


                                                              80: Reserved
  163 00000144 00000000        DCD              RSV65_IRQHandler ; 0x51  0x0144
                                                              81: Reserved 
  164 00000148 00000000        DCD              RSV66_IRQHandler ; 0x52  0x0148
                                                              82: Reserved 
  165 0000014C 00000000        DCD              OWM_IRQHandler ; 0x53  0x014C  
                                                            83: OWM
  166 00000150 00000000        DCD              RSV68_IRQHandler ; 0x54  0x0150
                                                              84: Reserved 
  167 00000154 00000000        DCD              RSV69_IRQHandler ; 0x55  0x0154
                                                              85: Reserved 
  168 00000158 00000000        DCD              RSV70_IRQHandler ; 0x56  0x0158
                                                              86: Reserved 
  169 0000015C 00000000        DCD              RSV71_IRQHandler ; 0x57  0x015C
                                                              87: Reserved 
  170 00000160 00000000        DCD              RSV72_IRQHandler ; 0x58  0x0160
                                                              88: Reserved 
  171 00000164 00000000        DCD              RSV73_IRQHandler ; 0x59  0x0164
                                                              89: Reserved 
  172 00000168 00000000        DCD              RSV74_IRQHandler ; 0x5A  0x0168
                                                              90: Reserved
  173 0000016C 00000000        DCD              RSV75_IRQHandler ; 0x5B  0x016C
                                                              91: Reserved
  174 00000170 00000000        DCD              RSV76_IRQHandler ; 0x5C  0x0170
                                                              92: Reserved 
  175 00000174 00000000        DCD              RSV77_IRQHandler ; 0x5D  0x0174
                                                              93: Reserved 
  176 00000178 00000000        DCD              RSV78_IRQHandler ; 0x5E  0x0178
                                                              94: Reserved 
  177 0000017C 00000000        DCD              RSV79_IRQHandler ; 0x5F  0x017C
                                                              95: Reserved 
  178 00000180 00000000        DCD              RSV80_IRQHandler ; 0x60  0x0180
                                                              96: Reserved 
  179 00000184 00000000        DCD              RSV81_IRQHandler ; 0x61  0x0184
                                                              97: Reserved
  180 00000188 00000000        DCD              ECC_IRQHandler ; 0x62  0x0188  
                                                            98: ECC
  181 0000018C 00000000        DCD              DVS_IRQHandler ; 0x63  0x018C  
                                                            99: DVS 
  182 00000190 00000000        DCD              SIMO_IRQHandler ; 0x64 0x0190  
                                                             100: SIMO
  183 00000194 00000000        DCD              RSV85_IRQHandler ; 0x65  0x0194
                                                              101: Reserved
  184 00000198 00000000        DCD              RSV86_IRQHandler ; 0x66  0x0198
                                                              102: Reserved
  185 0000019C 00000000        DCD              RSV87_IRQHandler ; 0x67  0x019C
                                                              103: Reserved
  186 000001A0 00000000        DCD              UART3_IRQHandler ; 0x68  0x01A0
                                                              104: UART 3 
  187 000001A4 00000000        DCD              RSV89_IRQHandler ; 0x69  0x01A4
                                                              105: Reserved 
  188 000001A8 00000000        DCD              RSV90_IRQHandler ; 0x6A  0x01A8
                                                              106: Reserved 
  189 000001AC 00000000        DCD              RSV91_IRQHandler ; 0x6B  0x01AC
                                                              107: Reserved 
  190 000001B0 00000000        DCD              RSV92_IRQHandler ; 0x6C  0x01B0
                                                              108: Reserved  
  191 000001B4 00000000        DCD              RSV93_IRQHandler ; 0x6D  0x01B4
                                                              109: Reserved 



ARM Macro Assembler    Page 7 


  192 000001B8 00000000        DCD              RSV94_IRQHandler ; 0x6E  0x01B8
                                                              110: Reserved
  193 000001BC 00000000        DCD              RSV95_IRQHandler ; 0x6F  0x01BC
                                                              111: Reserved 
  194 000001C0 00000000        DCD              RSV96_IRQHandler ; 0x70  0x01C0
                                                              112: Reserved
  195 000001C4 00000000        DCD              AES_IRQHandler ; 0x71  0x01C4  
                                                            113: AES  
  196 000001C8 00000000        DCD              CRC_IRQHandler ; 0x72  0x01C8  
                                                            114: CRC
  197 000001CC 00000000        DCD              I2S_IRQHandler ; 0x73  0x01CC  
                                                            115: I2S
  198 000001D0         __isr_vector_end
  199 000001D0         
  200 000001D0 000001D0 
                       __isr_vector_Size
                               EQU              __isr_vector_end - __isr_vector
  201 000001D0 00000000 
                       __Vectors
                               EQU              __isr_vector
  202 000001D0 000001D0 
                       __Vectors_End
                               EQU              __isr_vector_end
  203 000001D0 000001D0 
                       __Vectors_Size
                               EQU              __isr_vector_Size
  204 000001D0         
  205 000001D0                 AREA             |.text|, CODE, READONLY
  206 00000000         
  207 00000000         Reset_Handler
                               PROC
  208 00000000                 EXPORT           Reset_Handler           [WEAK]
  209 00000000                 IMPORT           PreInit
  210 00000000                 IMPORT           __main
  211 00000000         ; Copying IAR pointer
  212 00000000 4809            LDR              R0, =  __isr_vector
  213 00000002 6801            LDR              R1, [R0]
  214 00000004 468D            MOV              SP, R1
  215 00000006         
  216 00000006 4809            LDR              R0, =PreInit
  217 00000008 4780            BLX              R0
  218 0000000A         ;
  219 0000000A         ; SystemInit is called as part of $Sub$$main(void) after
                        RAM initialization, see sub_main.c
  220 0000000A         ;
  221 0000000A 4809            LDR              R0, =__main
  222 0000000C 4700            BX               R0
  223 0000000E         __SPIN
  224 0000000E BF30            WFI
  225 00000010 F7FF FFFD       BL               __SPIN
  226 00000014                 ENDP
  227 00000014         
  228 00000014         ; Dummy Exception Handlers (infinite loops which can be 
                       modified)
  229 00000014         
  230 00000014         NMI_Handler
                               PROC
  231 00000014                 EXPORT           NMI_Handler             [WEAK]
  232 00000014 F7FF FFFE       BL               NMI_Handler



ARM Macro Assembler    Page 8 


  233 00000018                 ENDP
  234 00000018         
  236 00000018         HardFault_Handler
                               PROC
  237 00000018                 EXPORT           HardFault_Handler       [WEAK]
  238 00000018 E7FE            B                .
  239 0000001A                 ENDP
  240 0000001A         
  242 0000001A         MemManage_Handler
                               PROC
  243 0000001A                 EXPORT           MemManage_Handler       [WEAK]
  244 0000001A E7FE            B                .
  245 0000001C                 ENDP
  246 0000001C         
  248 0000001C         BusFault_Handler
                               PROC
  249 0000001C                 EXPORT           BusFault_Handler        [WEAK]
  250 0000001C E7FE            B                .
  251 0000001E                 ENDP
  252 0000001E         
  254 0000001E         UsageFault_Handler
                               PROC
  255 0000001E                 EXPORT           UsageFault_Handler      [WEAK]
  256 0000001E E7FE            B                .
  257 00000020                 ENDP
  258 00000020         
  260 00000020         SVC_Handler
                               PROC
  261 00000020                 EXPORT           SVC_Handler             [WEAK]
  262 00000020 E7FE            B                .
  263 00000022                 ENDP
  264 00000022         
  266 00000022         DebugMon_Handler
                               PROC
  267 00000022                 EXPORT           DebugMon_Handler        [WEAK]
  268 00000022 E7FE            B                .
  269 00000024                 ENDP
  270 00000024         
  272 00000024         PendSV_Handler
                               PROC
  273 00000024                 EXPORT           PendSV_Handler          [WEAK]
  274 00000024 E7FE            B                .
  275 00000026                 ENDP
  276 00000026         
  278 00000026         Default_Handler
                               PROC
  279 00000026         ; MAX32665 Interrupts
  280 00000026         
  281 00000026                 EXPORT           PF_IRQHandler                 [
WEAK] 
                                                            ; 0x10  0x0040  16:
                                                             Power Fail 
  282 00000026                 EXPORT           WDT0_IRQHandler               [
WEAK] 
                                                            ; 0x11  0x0044  17:
                                                             Watchdog 0 
  283 00000026                 EXPORT           RSV02_IRQHandler              [
WEAK] 
                                                            ; 0x12  0x0048  18:



ARM Macro Assembler    Page 9 


                                                             Reserved 
  284 00000026                 EXPORT           RTC_IRQHandler                [
WEAK] 
                                                            ; 0x13  0x004C  19:
                                                             RTC 
  285 00000026                 EXPORT           TRNG_IRQHandler               [
WEAK] 
                                                            ; 0x14  0x0050  20:
                                                             True Random Number
                                                             Generator 
  286 00000026                 EXPORT           TMR0_IRQHandler               [
WEAK] 
                                                            ; 0x15  0x0054  21:
                                                             Timer 0 
  287 00000026                 EXPORT           TMR1_IRQHandler               [
WEAK] 
                                                            ; 0x16  0x0058  22:
                                                             Timer 1 
  288 00000026                 EXPORT           TMR2_IRQHandler               [
WEAK] 
                                                            ; 0x17  0x005C  23:
                                                             Timer 2 
  289 00000026                 EXPORT           TMR3_IRQHandler               [
WEAK] 
                                                            ; 0x18  0x0060  24:
                                                             Timer 3
  290 00000026                 EXPORT           TMR4_IRQHandler               [
WEAK] 
                                                            ; 0x19  0x0064  25:
                                                             Timer 4
  291 00000026                 EXPORT           TMR5_IRQHandler               [
WEAK] 
                                                            ; 0x1A  0x0068  26:
                                                             Timer 5 
  292 00000026                 EXPORT           RSV11_IRQHandler              [
WEAK] 
                                                            ; 0x1B  0x006C  27:
                                                             Reserved 
  293 00000026                 EXPORT           RSV12_IRQHandler              [
WEAK] 
                                                            ; 0x1C  0x0070  28:
                                                             Reserved 
  294 00000026                 EXPORT           I2C0_IRQHandler               [
WEAK] 
                                                            ; 0x1D  0x0074  29:
                                                             I2C0
  295 00000026                 EXPORT           UART0_IRQHandler              [
WEAK] 
                                                            ; 0x1E  0x0078  30:
                                                             UART 0 
  296 00000026                 EXPORT           UART1_IRQHandler              [
WEAK] 
                                                            ; 0x1F  0x007C  31:
                                                             UART 1 
  297 00000026                 EXPORT           SPI1_IRQHandler               [
WEAK] 
                                                            ; 0x20  0x0080  32:
                                                             SPI 1
  298 00000026                 EXPORT           RSV17_IRQHandler              [



ARM Macro Assembler    Page 10 


WEAK] 
                                                            ; 0x21  0x0084  33:
                                                             Reserved 
  299 00000026                 EXPORT           RSV18_IRQHandler              [
WEAK] 
                                                            ; 0x22  0x0088  34:
                                                             Reserved 
  300 00000026                 EXPORT           RSV19_IRQHandler              [
WEAK] 
                                                            ; 0x23  0x008C  35:
                                                             Reserved 
  301 00000026                 EXPORT           ADC_IRQHandler                [
WEAK] 
                                                            ; 0x24  0x0090  36:
                                                             ADC 
  302 00000026                 EXPORT           RSV21_IRQHandler              [
WEAK] 
                                                            ; 0x25  0x0094  37:
                                                             Reserved 
  303 00000026                 EXPORT           RSV22_IRQHandler              [
WEAK] 
                                                            ; 0x26  0x0098  38:
                                                             Reserved
  304 00000026                 EXPORT           FLC0_IRQHandler               [
WEAK] 
                                                            ; 0x27  0x009C  39:
                                                             Flash Controller 0
                                                            
  305 00000026                 EXPORT           GPIO0_IRQHandler              [
WEAK] 
                                                            ; 0x28  0x00A0  40:
                                                             GPIO0 
  306 00000026                 EXPORT           GPIO1_IRQHandler              [
WEAK] 
                                                            ; 0x29  0x00A4  41:
                                                             GPIO1 
  307 00000026                 EXPORT           GPIO2_IRQHandler              [
WEAK] 
                                                            ; 0x2A  0x00A8  42:
                                                             GPIO2
  308 00000026                 EXPORT           RSV27_IRQHandler              [
WEAK] 
                                                            ; 0x2B  0x00AC  43:
                                                             Reserved
  309 00000026                 EXPORT           DMA0_IRQHandler               [
WEAK] 
                                                            ; 0x2C  0x00B0  44:
                                                             DMA0 
  310 00000026                 EXPORT           DMA1_IRQHandler               [
WEAK] 
                                                            ; 0x2D  0x00B4  45:
                                                             DMA1 
  311 00000026                 EXPORT           DMA2_IRQHandler               [
WEAK] 
                                                            ; 0x2E  0x00B8  46:
                                                             DMA2 
  312 00000026                 EXPORT           DMA3_IRQHandler               [
WEAK] 
                                                            ; 0x2F  0x00BC  47:



ARM Macro Assembler    Page 11 


                                                             DMA3 
  313 00000026                 EXPORT           RSV32_IRQHandler              [
WEAK] 
                                                            ; 0x30  0x00C0  48:
                                                             Reserved 
  314 00000026                 EXPORT           RSV33_IRQHandler              [
WEAK] 
                                                            ; 0x31  0x00C4  49:
                                                             Reserved 
  315 00000026                 EXPORT           UART2_IRQHandler              [
WEAK] 
                                                            ; 0x32  0x00C8  50:
                                                             UART 2 
  316 00000026                 EXPORT           RSV35_IRQHandler              [
WEAK] 
                                                            ; 0x33  0x00CC  51:
                                                             Reserved 
  317 00000026                 EXPORT           I2C1_IRQHandler               [
WEAK] 
                                                            ; 0x34  0x00D0  52:
                                                             I2C1 
  318 00000026                 EXPORT           RSV37_IRQHandler              [
WEAK] 
                                                            ; 0x35  0x00D4  53:
                                                             Reserved 
  319 00000026                 EXPORT           RSV38_IRQHandler              [
WEAK] 
                                                            ; 0x36  0x00D8  54:
                                                             Reserved 
  320 00000026                 EXPORT           BTLE_TX_DONE_IRQHandler       [
WEAK] 
                                                            ; 0x37  0x00DC  55:
                                                             BTLE TX Don 
  321 00000026                 EXPORT           BTLE_RX_RCVD_IRQHandler       [
WEAK] 
                                                            ; 0x38  0x00E0  56:
                                                             BTLE RX Received 
  322 00000026                 EXPORT           BTLE_RX_ENG_DET_IRQHandler    [
WEAK] 
                                                            ; 0x39  0x00E4  57:
                                                             BTLE RX Energy Det
                                                            ected 
  323 00000026                 EXPORT           BTLE_SFD_DET_IRQHandler       [
WEAK] 
                                                            ; 0x3A  0x00E8  58:
                                                             BTLE SFD Detected 
                                                             
  324 00000026                 EXPORT           BTLE_SFD_TO_IRQHandler        [
WEAK] 
                                                            ; 0x3B  0x00EC  59:
                                                             BTLE SFD Timeout
  325 00000026                 EXPORT           BTLE_GP_EVENT_IRQHandler      [
WEAK] 
                                                            ; 0x3C  0x00F0  60:
                                                             BTLE Timestampd
  326 00000026                 EXPORT           BTLE_CFO_IRQHandler           [
WEAK] 
                                                            ; 0x3D  0x00F4  61:
                                                             BTLE CFO Done  



ARM Macro Assembler    Page 12 


  327 00000026                 EXPORT           BTLE_SIG_DET_IRQHandler       [
WEAK] 
                                                            ; 0x3E  0x00F8  62:
                                                             BTLE Signal Detect
                                                            ed 
  328 00000026                 EXPORT           BTLE_AGC_EVENT_IRQHandler     [
WEAK] 
                                                            ; 0x3F  0x00FC  63:
                                                             BTLE AGC Even 
  329 00000026                 EXPORT           BTLE_RFFE_SPIM_IRQHandler     [
WEAK] 
                                                            ; 0x40  0x0100  64:
                                                             BTLE RFFE SPIM Don
                                                            e
  330 00000026                 EXPORT           BTLE_TX_AES_IRQHandler        [
WEAK] 
                                                            ; 0x41  0x0104  65:
                                                             BTLE TX AES Done 
  331 00000026                 EXPORT           BTLE_RX_AES_IRQHandler        [
WEAK] 
                                                            ; 0x42  0x0108  66:
                                                             BTLE RX AES Done 
  332 00000026                 EXPORT           BTLE_INV_APB_ADDR_IRQHandler  [
WEAK] 
                                                            ; 0x43  0x010C  67:
                                                             BTLE Invalid APB A
                                                            ddress
  333 00000026                 EXPORT           BTLE_IQ_DATA_VALID_IRQHandler [
WEAK] 
                                                            ; 0x44  0x0110  68:
                                                             BTLE IQ Data Valid
                                                            
  334 00000026                 EXPORT           WUT_IRQHandler                [
WEAK] 
                                                            ; 0x45  0x0114  69:
                                                             Reserved 
  335 00000026                 EXPORT           GPIOWAKE_IRQHandler           [
WEAK] 
                                                            ; 0x46  0x0118  70:
                                                             GPIO Wakeup
  336 00000026                 EXPORT           RSV55_IRQHandler              [
WEAK] 
                                                            ; 0x47  0x011C  71:
                                                             Reserved 
  337 00000026                 EXPORT           SPI0_IRQHandler               [
WEAK] 
                                                            ; 0x48  0x0120  72:
                                                             SPI0 
  338 00000026                 EXPORT           WDT1_IRQHandler               [
WEAK] 
                                                            ; 0x49  0x0124  73:
                                                             Watchdog 1 
  339 00000026                 EXPORT           RSV57_IRQHandler              [
WEAK] 
                                                            ; 0x4A  0x0128  74:
                                                             Reserved 
  340 00000026                 EXPORT           PT_IRQHandler                 [
WEAK] 
                                                            ; 0x4B  0x012C  75:



ARM Macro Assembler    Page 13 


                                                             Pulse Train
  341 00000026                 EXPORT           RSV59_IRQHandler              [
WEAK] 
                                                            ; 0x4C  0x0130  76:
                                                             Reserved 
  342 00000026                 EXPORT           RSV61_IRQHandler              [
WEAK] 
                                                            ; 0x4D  0x0134  77:
                                                             Reserved 
  343 00000026                 EXPORT           I2C2_IRQHandler               [
WEAK] 
                                                            ; 0x4E  0x0138  78:
                                                             I2C 2 
  344 00000026                 EXPORT           RISCV_IRQHandler               
[WEAK] 
                                                            ; 0x4F  0x013C  79:
                                                             RISCV
  345 00000026                 EXPORT           RSV64_IRQHandler              [
WEAK] 
                                                            ; 0x50  0x0140  80:
                                                             Reserved
  346 00000026                 EXPORT           RSV65_IRQHandler              [
WEAK] 
                                                            ; 0x51  0x0144  81:
                                                             Reserved 
  347 00000026                 EXPORT           RSV66_IRQHandler              [
WEAK] 
                                                            ; 0x52  0x0148  82:
                                                             Reserved 
  348 00000026                 EXPORT           OWM_IRQHandler                [
WEAK] 
                                                            ; 0x53  0x014C  83:
                                                             One Wire Master
  349 00000026                 EXPORT           RSV68_IRQHandler              [
WEAK] 
                                                            ; 0x54  0x0150  84:
                                                             Reserved 
  350 00000026                 EXPORT           RSV69_IRQHandler              [
WEAK] 
                                                            ; 0x55  0x0154  85:
                                                             Reserved 
  351 00000026                 EXPORT           RSV70_IRQHandler              [
WEAK] 
                                                            ; 0x56  0x0158  86:
                                                             Reserved 
  352 00000026                 EXPORT           RSV71_IRQHandler              [
WEAK] 
                                                            ; 0x57  0x015C  87:
                                                             Reserved 
  353 00000026                 EXPORT           RSV72_IRQHandler              [
WEAK] 
                                                            ; 0x58  0x0160  88:
                                                             Reserved 
  354 00000026                 EXPORT           RSV73_IRQHandler              [
WEAK] 
                                                            ; 0x59  0x0164  89:
                                                             Reserved 
  355 00000026                 EXPORT           RSV74_IRQHandler              [
WEAK] 



ARM Macro Assembler    Page 14 


                                                            ; 0x5A  0x0168  90:
                                                             Reserved 
  356 00000026                 EXPORT           RSV75_IRQHandler              [
WEAK] 
                                                            ; 0x5B  0x016C  91:
                                                             Reserved 
  357 00000026                 EXPORT           RSV76_IRQHandler              [
WEAK] 
                                                            ; 0x5C  0x0170  92:
                                                             Reserved 
  358 00000026                 EXPORT           RSV77_IRQHandler              [
WEAK] 
                                                            ; 0x5D  0x0174  93:
                                                             Reserved 
  359 00000026                 EXPORT           RSV78_IRQHandler              [
WEAK] 
                                                            ; 0x5E  0x0178  94:
                                                             Reserved 
  360 00000026                 EXPORT           RSV79_IRQHandler              [
WEAK] 
                                                            ; 0x5F  0x017C  95:
                                                             Reserved 
  361 00000026                 EXPORT           RSV80_IRQHandler              [
WEAK] 
                                                            ; 0x60  0x0180  96:
                                                             Reserved 
  362 00000026                 EXPORT           RSV81_IRQHandler              [
WEAK] 
                                                            ; 0x61  0x0184  97:
                                                             Reserved
  363 00000026                 EXPORT           ECC_IRQHandler                [
WEAK] 
                                                            ; 0x62  0x0188  98:
                                                             ECC 
  364 00000026                 EXPORT           DVS_IRQHandler                [
WEAK] 
                                                            ; 0x63  0x018C  99:
                                                             DVS 
  365 00000026                 EXPORT           SIMO_IRQHandler               [
WEAK] 
                                                            ; 0x64 0x0190   100
                                                            : SIMO
  366 00000026                 EXPORT           RSV85_IRQHandler              [
WEAK] 
                                                            ; 0x65  0x0194  101
                                                            : Reserved
  367 00000026                 EXPORT           RSV86_IRQHandler              [
WEAK] 
                                                            ; 0x66  0x0198  102
                                                            : Reserved
  368 00000026                 EXPORT           RSV87_IRQHandler              [
WEAK] 
                                                            ; 0x67  0x019C  103
                                                            : Reserved
  369 00000026                 EXPORT           UART3_IRQHandler              [
WEAK] 
                                                            ; 0x68  0x01A0  104
                                                            : UART 3 
  370 00000026                 EXPORT           RSV89_IRQHandler              [



ARM Macro Assembler    Page 15 


WEAK] 
                                                            ; 0x69  0x01A4  105
                                                            : Reserved 
  371 00000026                 EXPORT           RSV90_IRQHandler              [
WEAK] 
                                                            ; 0x6A  0x01A8  106
                                                            : Reserved
  372 00000026                 EXPORT           RSV91_IRQHandler              [
WEAK] 
                                                            ; 0x6B  0x01AC  107
                                                            : Reserved 
  373 00000026                 EXPORT           RSV92_IRQHandler              [
WEAK] 
                                                            ; 0x6C  0x01B0  108
                                                            : Reserved  
  374 00000026                 EXPORT           RSV93_IRQHandler              [
WEAK] 
                                                            ; 0x6D  0x01B4  109
                                                            : Reserved 
  375 00000026                 EXPORT           RSV94_IRQHandler              [
WEAK] 
                                                            ; 0x6E  0x01B8  110
                                                            : Reserved
  376 00000026                 EXPORT           RSV95_IRQHandler              [
WEAK] 
                                                            ; 0x6F  0x01BC  111
                                                            : Reserved 
  377 00000026                 EXPORT           RSV96_IRQHandler              [
WEAK] 
                                                            ; 0x70  0x01C0  112
                                                            : Reserved
  378 00000026                 EXPORT           AES_IRQHandler                [
WEAK] 
                                                            ; 0x71  0x01C4  113
                                                            : AES  
  379 00000026                 EXPORT           CRC_IRQHandler                [
WEAK] 
                                                            ; 0x72  0x01C8  114
                                                            : CRC
  380 00000026                 EXPORT           I2S_IRQHandler                [
WEAK] 
                                                            ; 0x73  0x01CC  115
                                                            : I2S 
  381 00000026         
  382 00000026         
  383 00000026         ;*******************************************************
                       ************************
  384 00000026         ; Default handler implementations
  385 00000026         ;*******************************************************
                       ************************
  386 00000026         PF_IRQHandler                        ; 0x10  0x0040  16:
                                                             Power Fail 
  387 00000026         WDT0_IRQHandler                      ; 0x11  0x0044  17:
                                                             Watchdog 0 
  388 00000026         RSV02_IRQHandler                     ; 0x12  0x0048  18:
                                                             Reserved 
  389 00000026         RTC_IRQHandler                       ; 0x13  0x004C  19:
                                                             RTC 
  390 00000026         TRNG_IRQHandler                      ; 0x14  0x0050  20:



ARM Macro Assembler    Page 16 


                                                             True Random Number
                                                             Generator 
  391 00000026         TMR0_IRQHandler                      ; 0x15  0x0054  21:
                                                             Timer 0 
  392 00000026         TMR1_IRQHandler                      ; 0x16  0x0058  22:
                                                             Timer 1 
  393 00000026         TMR2_IRQHandler                      ; 0x17  0x005C  23:
                                                             Timer 2 
  394 00000026         TMR3_IRQHandler                      ; 0x18  0x0060  24:
                                                             Timer 3
  395 00000026         TMR4_IRQHandler                      ; 0x19  0x0064  25:
                                                             Timer 4
  396 00000026         TMR5_IRQHandler                      ; 0x1A  0x0068  26:
                                                             Timer 5 
  397 00000026         RSV11_IRQHandler                     ; 0x1B  0x006C  27:
                                                             Reserved 
  398 00000026         RSV12_IRQHandler                     ; 0x1C  0x0070  28:
                                                             Reserved 
  399 00000026         I2C0_IRQHandler                      ; 0x1D  0x0074  29:
                                                             I2C0
  400 00000026         UART0_IRQHandler                     ; 0x1E  0x0078  30:
                                                             UART 0 
  401 00000026         UART1_IRQHandler                     ; 0x1F  0x007C  31:
                                                             UART 1 
  402 00000026         SPI1_IRQHandler                      ; 0x20  0x0080  32:
                                                             SPI1
  403 00000026         RSV17_IRQHandler                     ; 0x21  0x0084  33:
                                                             Reserved */ 
  404 00000026         RSV18_IRQHandler                     ; 0x22  0x0088  34:
                                                             Reserved */ 
  405 00000026         RSV19_IRQHandler                     ; 0x23  0x008C  35:
                                                             Reserved 
  406 00000026         ADC_IRQHandler                       ; 0x24  0x0090  36:
                                                             ADC
  407 00000026         RSV21_IRQHandler                     ; 0x25  0x0094  37:
                                                             Reserved 
  408 00000026         RSV22_IRQHandler                     ; 0x26  0x0098  38:
                                                             Reserved
  409 00000026         FLC0_IRQHandler                      ; 0x27  0x009C  39:
                                                             Flash Controller 0
                                                            
  410 00000026         GPIO0_IRQHandler                     ; 0x28  0x00A0  40:
                                                             GPIO0 
  411 00000026         GPIO1_IRQHandler                     ; 0x29  0x00A4  41:
                                                             GPIO1 
  412 00000026         GPIO2_IRQHandler                     ; 0x2A  0x00A8  42:
                                                             GPIO2
  413 00000026         RSV27_IRQHandler                     ; 0x2B  0x00AC  43:
                                                             Reserved
  414 00000026         DMA0_IRQHandler                      ; 0x2C  0x00B0  44:
                                                             DMA0 
  415 00000026         DMA1_IRQHandler                      ; 0x2D  0x00B4  45:
                                                             DMA1 
  416 00000026         DMA2_IRQHandler                      ; 0x2E  0x00B8  46:
                                                             DMA2 
  417 00000026         DMA3_IRQHandler                      ; 0x2F  0x00BC  47:
                                                             DMA3 
  418 00000026         RSV32_IRQHandler                     ; 0x30  0x00C0  48:
                                                             Reserved 



ARM Macro Assembler    Page 17 


  419 00000026         RSV33_IRQHandler                     ; 0x31  0x00C4  49:
                                                             Reserved 
  420 00000026         UART2_IRQHandler                     ; 0x32  0x00C8  50:
                                                             UART 2 
  421 00000026         RSV35_IRQHandler                     ; 0x33  0x00CC  51:
                                                             Reserved 
  422 00000026         I2C1_IRQHandler                      ; 0x34  0x00D0  52:
                                                             I2C1 
  423 00000026         RSV37_IRQHandler                     ; 0x35  0x00D4  53:
                                                             Reserved 
  424 00000026         RSV38_IRQHandler                     ; 0x36  0x00D8  54:
                                                             Reserved 
  425 00000026         BTLE_TX_DONE_IRQHandler              ; 0x37  0x00DC  55:
                                                             BTLE_TX_DONE_IRQHa
                                                            ndler 
  426 00000026         BTLE_RX_RCVD_IRQHandler              ; 0x38  0x00E0  56:
                                                             BTLE_RX_RCVD_IRQHa
                                                            ndler 
  427 00000026         BTLE_RX_ENG_DET_IRQHandler           ; 0x39  0x00E4  57:
                                                             BTLE_RX_ENG_DET_IR
                                                            QHandler 
  428 00000026         BTLE_SFD_DET_IRQHandler              ; 0x3A  0x00E8  58:
                                                             BTLE_SFD_DET_IRQHa
                                                            ndler 
  429 00000026         BTLE_SFD_TO_IRQHandler               ; 0x3B  0x00EC  59:
                                                             BTLE_SFD_TO_IRQHan
                                                            dler
  430 00000026         BTLE_GP_EVENT_IRQHandler             ; 0x3C  0x00F0  60:
                                                             BTLE_GP_EVENT_IRQH
                                                            andler
  431 00000026         BTLE_CFO_IRQHandler                  ; 0x3D  0x00F4  61:
                                                             BTLE_CFO_IRQHandle
                                                            r 
  432 00000026         BTLE_SIG_DET_IRQHandler              ; 0x3E  0x00F8  62:
                                                             BTLE_SIG_DET_IRQHa
                                                            ndler 
  433 00000026         BTLE_AGC_EVENT_IRQHandler            ; 0x3F  0x00FC  63:
                                                             BTLE_AGC_EVENT_IRQ
                                                            Handler 
  434 00000026         BTLE_RFFE_SPIM_IRQHandler            ; 0x40  0x0100  64:
                                                             BTLE_RFFE_SPIM_IRQ
                                                            Handler 
  435 00000026         BTLE_TX_AES_IRQHandler               ; 0x41  0x0104  65:
                                                             BTLE_TX_AES_IRQHan
                                                            dler 
  436 00000026         BTLE_RX_AES_IRQHandler               ; 0x42  0x0108  66:
                                                             BTLE_RX_AES_IRQHan
                                                            dler 
  437 00000026         BTLE_INV_APB_ADDR_IRQHandler         ; 0x43  0x010C  67:
                                                             BTLE_INV_APB_ADDR_
                                                            IRQHandler
  438 00000026         BTLE_IQ_DATA_VALID_IRQHandler        ; 0x44  0x0110  68:
                                                             BTLE_IQ_DATA_VALID
                                                            _IRQHandler
  439 00000026         WUT_IRQHandler                       ; 0x45  0x0114  69:
                                                             Wake up Timer 
  440 00000026         GPIOWAKE_IRQHandler                  ; 0x46  0x0118  70:
                                                             GPIO Wakeup
  441 00000026         RSV55_IRQHandler                     ; 0x47  0x011C  71:



ARM Macro Assembler    Page 18 


                                                             Reserved 
  442 00000026         SPI0_IRQHandler                      ; 0x48  0x0120  72:
                                                             SPI 0 
  443 00000026         WDT1_IRQHandler                      ; 0x49  0x0124  73:
                                                             Watchdog 1 
  444 00000026         RSV57_IRQHandler                     ; 0x4A  0x0128  74:
                                                             Reserved 
  445 00000026         PT_IRQHandler                        ; 0x4B  0x012C  75:
                                                             Pulse Train
  446 00000026         RSV59_IRQHandler                     ; 0x4C  0x0130  76:
                                                             Reserved 
  447 00000026         RSV61_IRQHandler                     ; 0x4D  0x0134  77:
                                                             Reserved 
  448 00000026         I2C2_IRQHandler                      ; 0x4E  0x0138  78:
                                                             I2C 2 
  449 00000026         RISCV_IRQHandler                     ; 0x4F  0x013C  79:
                                                             RISCV
  450 00000026         RSV64_IRQHandler                     ; 0x50  0x0140  80:
                                                             Reserved
  451 00000026         RSV65_IRQHandler                     ; 0x51  0x0144  81:
                                                             Reserved 
  452 00000026         RSV66_IRQHandler                     ; 0x52  0x0148  82:
                                                             Reserved 
  453 00000026         OWM_IRQHandler                       ; 0x53  0x014C  83:
                                                             OWM
  454 00000026         RSV68_IRQHandler                     ; 0x54  0x0150  84:
                                                             Reserved 
  455 00000026         RSV69_IRQHandler                     ; 0x55  0x0154  85:
                                                             Reserved 
  456 00000026         RSV70_IRQHandler                     ; 0x56  0x0158  86:
                                                             Reserved 
  457 00000026         RSV71_IRQHandler                     ; 0x57  0x015C  87:
                                                             Reserved 
  458 00000026         RSV72_IRQHandler                     ; 0x58  0x0160  88:
                                                             Reserved 
  459 00000026         RSV73_IRQHandler                     ; 0x59  0x0164  89:
                                                             Reserved 
  460 00000026         RSV74_IRQHandler                     ; 0x5A  0x0168  90:
                                                             Reserved
  461 00000026         RSV75_IRQHandler                     ; 0x5B  0x016C  91:
                                                             Reserved
  462 00000026         RSV76_IRQHandler                     ; 0x5C  0x0170  92:
                                                             Reserved 
  463 00000026         RSV77_IRQHandler                     ; 0x5D  0x0174  93:
                                                             Reserved 
  464 00000026         RSV78_IRQHandler                     ; 0x5E  0x0178  94:
                                                             Reserved 
  465 00000026         RSV79_IRQHandler                     ; 0x5F  0x017C  95:
                                                             Reserved 
  466 00000026         RSV80_IRQHandler                     ; 0x60  0x0180  96:
                                                             Reserved 
  467 00000026         RSV81_IRQHandler                     ; 0x61  0x0184  97:
                                                             Reserved
  468 00000026         ECC_IRQHandler                       ; 0x62  0x0188  98:
                                                             ECC
  469 00000026         DVS_IRQHandler                       ; 0x63  0x018C  99:
                                                             DVS 
  470 00000026         SIMO_IRQHandler                      ; 0x64 0x0190   100
                                                            : SIMO



ARM Macro Assembler    Page 19 


  471 00000026         RSV85_IRQHandler                     ; 0x65  0x0194  101
                                                            : Reserved
  472 00000026         RSV86_IRQHandler                     ; 0x66  0x0198  102
                                                            : Reserved
  473 00000026         RSV87_IRQHandler                     ; 0x67  0x019C  103
                                                            : Reserved
  474 00000026         UART3_IRQHandler                     ; 0x68  0x01A0  104
                                                            : UART 3 
  475 00000026         RSV89_IRQHandler                     ; 0x69  0x01A4  105
                                                            : Reserved 
  476 00000026         RSV90_IRQHandler                     ; 0x6A  0x01A8  106
                                                            : Reserved 
  477 00000026         RSV91_IRQHandler                     ; 0x6B  0x01AC  107
                                                            : Reserved 
  478 00000026         RSV92_IRQHandler                     ; 0x6C  0x01B0  108
                                                            : Reserved  
  479 00000026         RSV93_IRQHandler                     ; 0x6D  0x01B4  109
                                                            : Reserved 
  480 00000026         RSV94_IRQHandler                     ; 0x6E  0x01B8  110
                                                            : Reserved
  481 00000026         RSV95_IRQHandler                     ; 0x6F  0x01BC  111
                                                            : Reserved 
  482 00000026         RSV96_IRQHandler                     ; 0x70  0x01C0  112
                                                            : Reserved
  483 00000026         AES_IRQHandler                       ; 0x71  0x01C4  113
                                                            : AES  
  484 00000026         CRC_IRQHandler                       ; 0x72  0x01C8  114
                                                            : CRC
  485 00000026         I2S_IRQHandler                       ; 0x73  0x01CC  115
                                                            : I2S
  486 00000026         
  487 00000026         
  488 00000026         
  489 00000026         
  490 00000026 E7FE            B                .
  491 00000028                 ENDP
  492 00000028         
  493 00000028                 ALIGN
  494 00000028         
  495 00000028         ;*******************************************************
                       ************************
  496 00000028         ; User Stack and Heap initialization
  497 00000028         ;*******************************************************
                       ************************
  498 00000028                 IF               :DEF:__MICROLIB
  499 00000028                 EXPORT           __stack_limit
  500 00000028                 EXPORT           __initial_sp
  501 00000028                 EXPORT           __heap_base
  502 00000028                 EXPORT           __heap_limit
  503 00000028         
  504 00000028         
  505 00000028                 ELSE                         ; Not using Microli
                                                            b
  524                          ENDIF
  525 00000028         
  526 00000028                 END
              00000000 
              00000000 
              00000000 



ARM Macro Assembler    Page 20 


Command Line: --debug --xref --diag_suppress=9931 --cpu=Cortex-M4.fp.sp --apcs=
interwork --depend=.\objects\startup_max32655.d -o.\objects\startup_max32655.o 
-I.\RTE\Device\MAX32655_Cortex-M4 -I.\RTE\_Flash_Debug -IC:\Users\faisal.tariq\
AppData\Local\Arm\Packs_536\ARM\CMSIS\5.8.0\CMSIS\Core\Include -IC:\Users\faisa
l.tariq\AppData\Local\Arm\Packs_536\Maxim\MAX32655\1.0.0\Libraries\Boards\MAX32
655\EvKit_V1\Include -IC:\Users\faisal.tariq\AppData\Local\Arm\Packs_536\Maxim\
MAX32655\1.0.0\Libraries\Boards\MAX32655\Include -IC:\Users\faisal.tariq\AppDat
a\Local\Arm\Packs_536\Maxim\MAX32655\1.0.0\Libraries\CMSIS\Device\Maxim\MAX3265
5\Include -IC:\Users\faisal.tariq\AppData\Local\Arm\Packs_536\Maxim\MAX32655\1.
0.0\Libraries\Cordio\ble-apps\sources -IC:\Users\faisal.tariq\AppData\Local\Arm
\Packs_536\Maxim\MAX32655\1.0.0\Libraries\Cordio\ble-apps\sources\assettag -IC:
\Users\faisal.tariq\AppData\Local\Arm\Packs_536\Maxim\MAX32655\1.0.0\Libraries\
Cordio\ble-apps\sources\cycling -IC:\Users\faisal.tariq\AppData\Local\Arm\Packs
_536\Maxim\MAX32655\1.0.0\Libraries\Cordio\ble-apps\sources\datc -IC:\Users\fai
sal.tariq\AppData\Local\Arm\Packs_536\Maxim\MAX32655\1.0.0\Libraries\Cordio\ble
-apps\sources\dats -IC:\Users\faisal.tariq\AppData\Local\Arm\Packs_536\Maxim\MA
X32655\1.0.0\Libraries\Cordio\ble-apps\sources\fit -IC:\Users\faisal.tariq\AppD
ata\Local\Arm\Packs_536\Maxim\MAX32655\1.0.0\Libraries\Cordio\ble-apps\sources\
hidapp -IC:\Users\faisal.tariq\AppData\Local\Arm\Packs_536\Maxim\MAX32655\1.0.0
\Libraries\Cordio\ble-apps\sources\locator -IC:\Users\faisal.tariq\AppData\Loca
l\Arm\Packs_536\Maxim\MAX32655\1.0.0\Libraries\Cordio\ble-apps\sources\medc -IC
:\Users\faisal.tariq\AppData\Local\Arm\Packs_536\Maxim\MAX32655\1.0.0\Libraries
\Cordio\ble-apps\sources\meds -IC:\Users\faisal.tariq\AppData\Local\Arm\Packs_5
36\Maxim\MAX32655\1.0.0\Libraries\Cordio\ble-apps\sources\tag -IC:\Users\faisal
.tariq\AppData\Local\Arm\Packs_536\Maxim\MAX32655\1.0.0\Libraries\Cordio\ble-ap
ps\sources\uribeacon -IC:\Users\faisal.tariq\AppData\Local\Arm\Packs_536\Maxim\
MAX32655\1.0.0\Libraries\Cordio\ble-apps\sources\watch -IC:\Users\faisal.tariq\
AppData\Local\Arm\Packs_536\Maxim\MAX32655\1.0.0\Libraries\Cordio\ble-host\incl
ude -IC:\Users\faisal.tariq\AppData\Local\Arm\Packs_536\Maxim\MAX32655\1.0.0\Li
braries\Cordio\ble-host\sources\hci\common -IC:\Users\faisal.tariq\AppData\Loca
l\Arm\Packs_536\Maxim\MAX32655\1.0.0\Libraries\Cordio\ble-host\sources\hci\exac
tle -IC:\Users\faisal.tariq\AppData\Local\Arm\Packs_536\Maxim\MAX32655\1.0.0\Li
braries\Cordio\ble-host\sources\sec\common -IC:\Users\faisal.tariq\AppData\Loca
l\Arm\Packs_536\Maxim\MAX32655\1.0.0\Libraries\Cordio\ble-host\sources\stack\at
t -IC:\Users\faisal.tariq\AppData\Local\Arm\Packs_536\Maxim\MAX32655\1.0.0\Libr
aries\Cordio\ble-host\sources\stack\cfg -IC:\Users\faisal.tariq\AppData\Local\A
rm\Packs_536\Maxim\MAX32655\1.0.0\Libraries\Cordio\ble-host\sources\stack\dm -I
C:\Users\faisal.tariq\AppData\Local\Arm\Packs_536\Maxim\MAX32655\1.0.0\Librarie
s\Cordio\ble-host\sources\stack\hci -IC:\Users\faisal.tariq\AppData\Local\Arm\P
acks_536\Maxim\MAX32655\1.0.0\Libraries\Cordio\ble-host\sources\stack\l2c -IC:\
Users\faisal.tariq\AppData\Local\Arm\Packs_536\Maxim\MAX32655\1.0.0\Libraries\C
ordio\ble-host\sources\stack\smp -IC:\Users\faisal.tariq\AppData\Local\Arm\Pack
s_536\Maxim\MAX32655\1.0.0\Libraries\Cordio\ble-profiles\include -IC:\Users\fai
sal.tariq\AppData\Local\Arm\Packs_536\Maxim\MAX32655\1.0.0\Libraries\Cordio\ble
-profiles\sources\af -IC:\Users\faisal.tariq\AppData\Local\Arm\Packs_536\Maxim\
MAX32655\1.0.0\Libraries\Cordio\ble-profiles\sources\profiles -IC:\Users\faisal
.tariq\AppData\Local\Arm\Packs_536\Maxim\MAX32655\1.0.0\Libraries\Cordio\ble-pr
ofiles\sources\profiles\gatt -IC:\Users\faisal.tariq\AppData\Local\Arm\Packs_53
6\Maxim\MAX32655\1.0.0\Libraries\Cordio\ble-profiles\sources\profiles\include -
IC:\Users\faisal.tariq\AppData\Local\Arm\Packs_536\Maxim\MAX32655\1.0.0\Librari
es\Cordio\ble-profiles\sources\services -IC:\Users\faisal.tariq\AppData\Local\A
rm\Packs_536\Maxim\MAX32655\1.0.0\Libraries\Cordio\controller\include -IC:\User
s\faisal.tariq\AppData\Local\Arm\Packs_536\Maxim\MAX32655\1.0.0\Libraries\Cordi
o\controller\include\ble -IC:\Users\faisal.tariq\AppData\Local\Arm\Packs_536\Ma
xim\MAX32655\1.0.0\Libraries\Cordio\controller\include\common -IC:\Users\faisal
.tariq\AppData\Local\Arm\Packs_536\Maxim\MAX32655\1.0.0\Libraries\Cordio\contro
ller\sources\ble\bb -IC:\Users\faisal.tariq\AppData\Local\Arm\Packs_536\Maxim\M
AX32655\1.0.0\Libraries\Cordio\controller\sources\ble\include -IC:\Users\faisal
.tariq\AppData\Local\Arm\Packs_536\Maxim\MAX32655\1.0.0\Libraries\Cordio\contro



ARM Macro Assembler    Page 21 


ller\sources\ble\init -IC:\Users\faisal.tariq\AppData\Local\Arm\Packs_536\Maxim
\MAX32655\1.0.0\Libraries\Cordio\controller\sources\ble\lctr -IC:\Users\faisal.
tariq\AppData\Local\Arm\Packs_536\Maxim\MAX32655\1.0.0\Libraries\Cordio\control
ler\sources\ble\ll -IC:\Users\faisal.tariq\AppData\Local\Arm\Packs_536\Maxim\MA
X32655\1.0.0\Libraries\Cordio\controller\sources\ble\lmgr -IC:\Users\faisal.tar
iq\AppData\Local\Arm\Packs_536\Maxim\MAX32655\1.0.0\Libraries\Cordio\controller
\sources\ble\sch -IC:\Users\faisal.tariq\AppData\Local\Arm\Packs_536\Maxim\MAX3
2655\1.0.0\Libraries\Cordio\controller\sources\common\bb -IC:\Users\faisal.tari
q\AppData\Local\Arm\Packs_536\Maxim\MAX32655\1.0.0\Libraries\Cordio\controller\
sources\common\sch -IC:\Users\faisal.tariq\AppData\Local\Arm\Packs_536\Maxim\MA
X32655\1.0.0\Libraries\Cordio\platform\include -IC:\Users\faisal.tariq\AppData\
Local\Arm\Packs_536\Maxim\MAX32655\1.0.0\Libraries\Cordio\platform\targets\maxi
m\max32655\sources -IC:\Users\faisal.tariq\AppData\Local\Arm\Packs_536\Maxim\MA
X32655\1.0.0\Libraries\Cordio\thirdparty\uecc -IC:\Users\faisal.tariq\AppData\L
ocal\Arm\Packs_536\Maxim\MAX32655\1.0.0\Libraries\Cordio\wsf\include -IC:\Users
\faisal.tariq\AppData\Local\Arm\Packs_536\Maxim\MAX32655\1.0.0\Libraries\Cordio
\wsf\sources\targets\baremetal -IC:\Users\faisal.tariq\AppData\Local\Arm\Packs_
536\Maxim\MAX32655\1.0.0\Libraries\Cordio\wsf\sources\util -IC:\Users\faisal.ta
riq\AppData\Local\Arm\Packs_536\Maxim\MAX32655\1.0.0\Libraries\PeriphDrivers\In
clude\MAX32655 -IC:\Users\faisal.tariq\AppData\Local\Arm\Packs_536\Maxim\MAX326
55\1.0.0\Libraries\PeriphDrivers\Source\ADC -IC:\Users\faisal.tariq\AppData\Loc
al\Arm\Packs_536\Maxim\MAX32655\1.0.0\Libraries\PeriphDrivers\Source\AES -IC:\U
sers\faisal.tariq\AppData\Local\Arm\Packs_536\Maxim\MAX32655\1.0.0\Libraries\Pe
riphDrivers\Source\CRC -IC:\Users\faisal.tariq\AppData\Local\Arm\Packs_536\Maxi
m\MAX32655\1.0.0\Libraries\PeriphDrivers\Source\DMA -IC:\Users\faisal.tariq\App
Data\Local\Arm\Packs_536\Maxim\MAX32655\1.0.0\Libraries\PeriphDrivers\Source\FL
C -IC:\Users\faisal.tariq\AppData\Local\Arm\Packs_536\Maxim\MAX32655\1.0.0\Libr
aries\PeriphDrivers\Source\GPIO -IC:\Users\faisal.tariq\AppData\Local\Arm\Packs
_536\Maxim\MAX32655\1.0.0\Libraries\PeriphDrivers\Source\I2C -IC:\Users\faisal.
tariq\AppData\Local\Arm\Packs_536\Maxim\MAX32655\1.0.0\Libraries\PeriphDrivers\
Source\I2S -IC:\Users\faisal.tariq\AppData\Local\Arm\Packs_536\Maxim\MAX32655\1
.0.0\Libraries\PeriphDrivers\Source\ICC -IC:\Users\faisal.tariq\AppData\Local\A
rm\Packs_536\Maxim\MAX32655\1.0.0\Libraries\PeriphDrivers\Source\LP -IC:\Users\
faisal.tariq\AppData\Local\Arm\Packs_536\Maxim\MAX32655\1.0.0\Libraries\PeriphD
rivers\Source\PT -IC:\Users\faisal.tariq\AppData\Local\Arm\Packs_536\Maxim\MAX3
2655\1.0.0\Libraries\PeriphDrivers\Source\RTC -IC:\Users\faisal.tariq\AppData\L
ocal\Arm\Packs_536\Maxim\MAX32655\1.0.0\Libraries\PeriphDrivers\Source\SPI -IC:
\Users\faisal.tariq\AppData\Local\Arm\Packs_536\Maxim\MAX32655\1.0.0\Libraries\
PeriphDrivers\Source\SYS -IC:\Users\faisal.tariq\AppData\Local\Arm\Packs_536\Ma
xim\MAX32655\1.0.0\Libraries\PeriphDrivers\Source\TMR -IC:\Users\faisal.tariq\A
ppData\Local\Arm\Packs_536\Maxim\MAX32655\1.0.0\Libraries\PeriphDrivers\Source\
TRNG -IC:\Users\faisal.tariq\AppData\Local\Arm\Packs_536\Maxim\MAX32655\1.0.0\L
ibraries\PeriphDrivers\Source\UART -IC:\Users\faisal.tariq\AppData\Local\Arm\Pa
cks_536\Maxim\MAX32655\1.0.0\Libraries\PeriphDrivers\Source\WDT -IC:\Users\fais
al.tariq\AppData\Local\Arm\Packs_536\Maxim\MAX32655\1.0.0\Libraries\PeriphDrive
rs\Source\WUT -IC:\Users\faisal.tariq\AppData\Local\Arm\Packs_536\Maxim\MAX3265
5\1.0.0\Libraries\Device\Maxim\MAX32655\Include --predefine="__MICROLIB SETA 1"
 --predefine="__UVISION_VERSION SETA 536" --predefine="_RTE_ SETA 1" --predefin
e="MAX32655 SETA 1" --predefine="_RTE_ SETA 1" --list=.\listings\startup_max326
55.lst RTE\Device\MAX32655_Cortex-M4\startup_max32655.s



ARM Macro Assembler    Page 1 Alphabetic symbol ordering
Relocatable symbols

STACK 00000000

Symbol: STACK
   Definitions
      At line 48 in file RTE\Device\MAX32655_Cortex-M4\startup_max32655.s
   Uses
      None
Comment: STACK unused
Stack_Mem 00000000

Symbol: Stack_Mem
   Definitions
      At line 50 in file RTE\Device\MAX32655_Cortex-M4\startup_max32655.s
   Uses
      None
Comment: Stack_Mem unused
__initial_sp 00008000

Symbol: __initial_sp
   Definitions
      At line 51 in file RTE\Device\MAX32655_Cortex-M4\startup_max32655.s
   Uses
      At line 80 in file RTE\Device\MAX32655_Cortex-M4\startup_max32655.s
      At line 500 in file RTE\Device\MAX32655_Cortex-M4\startup_max32655.s

__stack_limit 00000000

Symbol: __stack_limit
   Definitions
      At line 49 in file RTE\Device\MAX32655_Cortex-M4\startup_max32655.s
   Uses
      At line 499 in file RTE\Device\MAX32655_Cortex-M4\startup_max32655.s
Comment: __stack_limit used once
4 symbols



ARM Macro Assembler    Page 1 Alphabetic symbol ordering
Relocatable symbols

HEAP 00000000

Symbol: HEAP
   Definitions
      At line 60 in file RTE\Device\MAX32655_Cortex-M4\startup_max32655.s
   Uses
      None
Comment: HEAP unused
Heap_Mem 00000000

Symbol: Heap_Mem
   Definitions
      At line 62 in file RTE\Device\MAX32655_Cortex-M4\startup_max32655.s
   Uses
      None
Comment: Heap_Mem unused
__heap_base 00000000

Symbol: __heap_base
   Definitions
      At line 61 in file RTE\Device\MAX32655_Cortex-M4\startup_max32655.s
   Uses
      At line 501 in file RTE\Device\MAX32655_Cortex-M4\startup_max32655.s
Comment: __heap_base used once
__heap_limit 00008000

Symbol: __heap_limit
   Definitions
      At line 63 in file RTE\Device\MAX32655_Cortex-M4\startup_max32655.s
   Uses
      At line 502 in file RTE\Device\MAX32655_Cortex-M4\startup_max32655.s
Comment: __heap_limit used once
4 symbols



ARM Macro Assembler    Page 1 Alphabetic symbol ordering
Relocatable symbols

RESET 00000000

Symbol: RESET
   Definitions
      At line 71 in file RTE\Device\MAX32655_Cortex-M4\startup_max32655.s
   Uses
      None
Comment: RESET unused
__Vectors 00000000

Symbol: __Vectors
   Definitions
      At line 201 in file RTE\Device\MAX32655_Cortex-M4\startup_max32655.s
   Uses
      At line 72 in file RTE\Device\MAX32655_Cortex-M4\startup_max32655.s
Comment: __Vectors used once
__Vectors_End 000001D0

Symbol: __Vectors_End
   Definitions
      At line 202 in file RTE\Device\MAX32655_Cortex-M4\startup_max32655.s
   Uses
      At line 73 in file RTE\Device\MAX32655_Cortex-M4\startup_max32655.s
Comment: __Vectors_End used once
__isr_vector 00000000

Symbol: __isr_vector
   Definitions
      At line 80 in file RTE\Device\MAX32655_Cortex-M4\startup_max32655.s
   Uses
      At line 75 in file RTE\Device\MAX32655_Cortex-M4\startup_max32655.s
      At line 200 in file RTE\Device\MAX32655_Cortex-M4\startup_max32655.s
      At line 201 in file RTE\Device\MAX32655_Cortex-M4\startup_max32655.s
      At line 212 in file RTE\Device\MAX32655_Cortex-M4\startup_max32655.s

__isr_vector_end 000001D0

Symbol: __isr_vector_end
   Definitions
      At line 198 in file RTE\Device\MAX32655_Cortex-M4\startup_max32655.s
   Uses
      At line 200 in file RTE\Device\MAX32655_Cortex-M4\startup_max32655.s
      At line 202 in file RTE\Device\MAX32655_Cortex-M4\startup_max32655.s

5 symbols



ARM Macro Assembler    Page 1 Alphabetic symbol ordering
Relocatable symbols

.text 00000000

Symbol: .text
   Definitions
      At line 205 in file RTE\Device\MAX32655_Cortex-M4\startup_max32655.s
   Uses
      None
Comment: .text unused
ADC_IRQHandler 00000026

Symbol: ADC_IRQHandler
   Definitions
      At line 406 in file RTE\Device\MAX32655_Cortex-M4\startup_max32655.s
   Uses
      At line 118 in file RTE\Device\MAX32655_Cortex-M4\startup_max32655.s
      At line 301 in file RTE\Device\MAX32655_Cortex-M4\startup_max32655.s

AES_IRQHandler 00000026

Symbol: AES_IRQHandler
   Definitions
      At line 483 in file RTE\Device\MAX32655_Cortex-M4\startup_max32655.s
   Uses
      At line 195 in file RTE\Device\MAX32655_Cortex-M4\startup_max32655.s
      At line 378 in file RTE\Device\MAX32655_Cortex-M4\startup_max32655.s

BTLE_AGC_EVENT_IRQHandler 00000026

Symbol: BTLE_AGC_EVENT_IRQHandler
   Definitions
      At line 433 in file RTE\Device\MAX32655_Cortex-M4\startup_max32655.s
   Uses
      At line 145 in file RTE\Device\MAX32655_Cortex-M4\startup_max32655.s
      At line 328 in file RTE\Device\MAX32655_Cortex-M4\startup_max32655.s

BTLE_CFO_IRQHandler 00000026

Symbol: BTLE_CFO_IRQHandler
   Definitions
      At line 431 in file RTE\Device\MAX32655_Cortex-M4\startup_max32655.s
   Uses
      At line 143 in file RTE\Device\MAX32655_Cortex-M4\startup_max32655.s
      At line 326 in file RTE\Device\MAX32655_Cortex-M4\startup_max32655.s

BTLE_GP_EVENT_IRQHandler 00000026

Symbol: BTLE_GP_EVENT_IRQHandler
   Definitions
      At line 430 in file RTE\Device\MAX32655_Cortex-M4\startup_max32655.s
   Uses
      At line 142 in file RTE\Device\MAX32655_Cortex-M4\startup_max32655.s
      At line 325 in file RTE\Device\MAX32655_Cortex-M4\startup_max32655.s

BTLE_INV_APB_ADDR_IRQHandler 00000026

Symbol: BTLE_INV_APB_ADDR_IRQHandler
   Definitions
      At line 437 in file RTE\Device\MAX32655_Cortex-M4\startup_max32655.s
   Uses



ARM Macro Assembler    Page 2 Alphabetic symbol ordering
Relocatable symbols

      At line 149 in file RTE\Device\MAX32655_Cortex-M4\startup_max32655.s
      At line 332 in file RTE\Device\MAX32655_Cortex-M4\startup_max32655.s

BTLE_IQ_DATA_VALID_IRQHandler 00000026

Symbol: BTLE_IQ_DATA_VALID_IRQHandler
   Definitions
      At line 438 in file RTE\Device\MAX32655_Cortex-M4\startup_max32655.s
   Uses
      At line 150 in file RTE\Device\MAX32655_Cortex-M4\startup_max32655.s
      At line 333 in file RTE\Device\MAX32655_Cortex-M4\startup_max32655.s

BTLE_RFFE_SPIM_IRQHandler 00000026

Symbol: BTLE_RFFE_SPIM_IRQHandler
   Definitions
      At line 434 in file RTE\Device\MAX32655_Cortex-M4\startup_max32655.s
   Uses
      At line 146 in file RTE\Device\MAX32655_Cortex-M4\startup_max32655.s
      At line 329 in file RTE\Device\MAX32655_Cortex-M4\startup_max32655.s

BTLE_RX_AES_IRQHandler 00000026

Symbol: BTLE_RX_AES_IRQHandler
   Definitions
      At line 436 in file RTE\Device\MAX32655_Cortex-M4\startup_max32655.s
   Uses
      At line 148 in file RTE\Device\MAX32655_Cortex-M4\startup_max32655.s
      At line 331 in file RTE\Device\MAX32655_Cortex-M4\startup_max32655.s

BTLE_RX_ENG_DET_IRQHandler 00000026

Symbol: BTLE_RX_ENG_DET_IRQHandler
   Definitions
      At line 427 in file RTE\Device\MAX32655_Cortex-M4\startup_max32655.s
   Uses
      At line 139 in file RTE\Device\MAX32655_Cortex-M4\startup_max32655.s
      At line 322 in file RTE\Device\MAX32655_Cortex-M4\startup_max32655.s

BTLE_RX_RCVD_IRQHandler 00000026

Symbol: BTLE_RX_RCVD_IRQHandler
   Definitions
      At line 426 in file RTE\Device\MAX32655_Cortex-M4\startup_max32655.s
   Uses
      At line 138 in file RTE\Device\MAX32655_Cortex-M4\startup_max32655.s
      At line 321 in file RTE\Device\MAX32655_Cortex-M4\startup_max32655.s

BTLE_SFD_DET_IRQHandler 00000026

Symbol: BTLE_SFD_DET_IRQHandler
   Definitions
      At line 428 in file RTE\Device\MAX32655_Cortex-M4\startup_max32655.s
   Uses
      At line 140 in file RTE\Device\MAX32655_Cortex-M4\startup_max32655.s
      At line 323 in file RTE\Device\MAX32655_Cortex-M4\startup_max32655.s

BTLE_SFD_TO_IRQHandler 00000026




ARM Macro Assembler    Page 3 Alphabetic symbol ordering
Relocatable symbols

Symbol: BTLE_SFD_TO_IRQHandler
   Definitions
      At line 429 in file RTE\Device\MAX32655_Cortex-M4\startup_max32655.s
   Uses
      At line 141 in file RTE\Device\MAX32655_Cortex-M4\startup_max32655.s
      At line 324 in file RTE\Device\MAX32655_Cortex-M4\startup_max32655.s

BTLE_SIG_DET_IRQHandler 00000026

Symbol: BTLE_SIG_DET_IRQHandler
   Definitions
      At line 432 in file RTE\Device\MAX32655_Cortex-M4\startup_max32655.s
   Uses
      At line 144 in file RTE\Device\MAX32655_Cortex-M4\startup_max32655.s
      At line 327 in file RTE\Device\MAX32655_Cortex-M4\startup_max32655.s

BTLE_TX_AES_IRQHandler 00000026

Symbol: BTLE_TX_AES_IRQHandler
   Definitions
      At line 435 in file RTE\Device\MAX32655_Cortex-M4\startup_max32655.s
   Uses
      At line 147 in file RTE\Device\MAX32655_Cortex-M4\startup_max32655.s
      At line 330 in file RTE\Device\MAX32655_Cortex-M4\startup_max32655.s

BTLE_TX_DONE_IRQHandler 00000026

Symbol: BTLE_TX_DONE_IRQHandler
   Definitions
      At line 425 in file RTE\Device\MAX32655_Cortex-M4\startup_max32655.s
   Uses
      At line 137 in file RTE\Device\MAX32655_Cortex-M4\startup_max32655.s
      At line 320 in file RTE\Device\MAX32655_Cortex-M4\startup_max32655.s

BusFault_Handler 0000001C

Symbol: BusFault_Handler
   Definitions
      At line 248 in file RTE\Device\MAX32655_Cortex-M4\startup_max32655.s
   Uses
      At line 85 in file RTE\Device\MAX32655_Cortex-M4\startup_max32655.s
      At line 249 in file RTE\Device\MAX32655_Cortex-M4\startup_max32655.s

CRC_IRQHandler 00000026

Symbol: CRC_IRQHandler
   Definitions
      At line 484 in file RTE\Device\MAX32655_Cortex-M4\startup_max32655.s
   Uses
      At line 196 in file RTE\Device\MAX32655_Cortex-M4\startup_max32655.s
      At line 379 in file RTE\Device\MAX32655_Cortex-M4\startup_max32655.s

DMA0_IRQHandler 00000026

Symbol: DMA0_IRQHandler
   Definitions
      At line 414 in file RTE\Device\MAX32655_Cortex-M4\startup_max32655.s
   Uses
      At line 126 in file RTE\Device\MAX32655_Cortex-M4\startup_max32655.s



ARM Macro Assembler    Page 4 Alphabetic symbol ordering
Relocatable symbols

      At line 309 in file RTE\Device\MAX32655_Cortex-M4\startup_max32655.s

DMA1_IRQHandler 00000026

Symbol: DMA1_IRQHandler
   Definitions
      At line 415 in file RTE\Device\MAX32655_Cortex-M4\startup_max32655.s
   Uses
      At line 127 in file RTE\Device\MAX32655_Cortex-M4\startup_max32655.s
      At line 310 in file RTE\Device\MAX32655_Cortex-M4\startup_max32655.s

DMA2_IRQHandler 00000026

Symbol: DMA2_IRQHandler
   Definitions
      At line 416 in file RTE\Device\MAX32655_Cortex-M4\startup_max32655.s
   Uses
      At line 128 in file RTE\Device\MAX32655_Cortex-M4\startup_max32655.s
      At line 311 in file RTE\Device\MAX32655_Cortex-M4\startup_max32655.s

DMA3_IRQHandler 00000026

Symbol: DMA3_IRQHandler
   Definitions
      At line 417 in file RTE\Device\MAX32655_Cortex-M4\startup_max32655.s
   Uses
      At line 129 in file RTE\Device\MAX32655_Cortex-M4\startup_max32655.s
      At line 312 in file RTE\Device\MAX32655_Cortex-M4\startup_max32655.s

DVS_IRQHandler 00000026

Symbol: DVS_IRQHandler
   Definitions
      At line 469 in file RTE\Device\MAX32655_Cortex-M4\startup_max32655.s
   Uses
      At line 181 in file RTE\Device\MAX32655_Cortex-M4\startup_max32655.s
      At line 364 in file RTE\Device\MAX32655_Cortex-M4\startup_max32655.s

DebugMon_Handler 00000022

Symbol: DebugMon_Handler
   Definitions
      At line 266 in file RTE\Device\MAX32655_Cortex-M4\startup_max32655.s
   Uses
      At line 92 in file RTE\Device\MAX32655_Cortex-M4\startup_max32655.s
      At line 267 in file RTE\Device\MAX32655_Cortex-M4\startup_max32655.s

Default_Handler 00000026

Symbol: Default_Handler
   Definitions
      At line 278 in file RTE\Device\MAX32655_Cortex-M4\startup_max32655.s
   Uses
      None
Comment: Default_Handler unused
ECC_IRQHandler 00000026

Symbol: ECC_IRQHandler
   Definitions



ARM Macro Assembler    Page 5 Alphabetic symbol ordering
Relocatable symbols

      At line 468 in file RTE\Device\MAX32655_Cortex-M4\startup_max32655.s
   Uses
      At line 180 in file RTE\Device\MAX32655_Cortex-M4\startup_max32655.s
      At line 363 in file RTE\Device\MAX32655_Cortex-M4\startup_max32655.s

FLC0_IRQHandler 00000026

Symbol: FLC0_IRQHandler
   Definitions
      At line 409 in file RTE\Device\MAX32655_Cortex-M4\startup_max32655.s
   Uses
      At line 121 in file RTE\Device\MAX32655_Cortex-M4\startup_max32655.s
      At line 304 in file RTE\Device\MAX32655_Cortex-M4\startup_max32655.s

GPIO0_IRQHandler 00000026

Symbol: GPIO0_IRQHandler
   Definitions
      At line 410 in file RTE\Device\MAX32655_Cortex-M4\startup_max32655.s
   Uses
      At line 122 in file RTE\Device\MAX32655_Cortex-M4\startup_max32655.s
      At line 305 in file RTE\Device\MAX32655_Cortex-M4\startup_max32655.s

GPIO1_IRQHandler 00000026

Symbol: GPIO1_IRQHandler
   Definitions
      At line 411 in file RTE\Device\MAX32655_Cortex-M4\startup_max32655.s
   Uses
      At line 123 in file RTE\Device\MAX32655_Cortex-M4\startup_max32655.s
      At line 306 in file RTE\Device\MAX32655_Cortex-M4\startup_max32655.s

GPIO2_IRQHandler 00000026

Symbol: GPIO2_IRQHandler
   Definitions
      At line 412 in file RTE\Device\MAX32655_Cortex-M4\startup_max32655.s
   Uses
      At line 124 in file RTE\Device\MAX32655_Cortex-M4\startup_max32655.s
      At line 307 in file RTE\Device\MAX32655_Cortex-M4\startup_max32655.s

GPIOWAKE_IRQHandler 00000026

Symbol: GPIOWAKE_IRQHandler
   Definitions
      At line 440 in file RTE\Device\MAX32655_Cortex-M4\startup_max32655.s
   Uses
      At line 152 in file RTE\Device\MAX32655_Cortex-M4\startup_max32655.s
      At line 335 in file RTE\Device\MAX32655_Cortex-M4\startup_max32655.s

HardFault_Handler 00000018

Symbol: HardFault_Handler
   Definitions
      At line 236 in file RTE\Device\MAX32655_Cortex-M4\startup_max32655.s
   Uses
      At line 83 in file RTE\Device\MAX32655_Cortex-M4\startup_max32655.s
      At line 237 in file RTE\Device\MAX32655_Cortex-M4\startup_max32655.s




ARM Macro Assembler    Page 6 Alphabetic symbol ordering
Relocatable symbols

I2C0_IRQHandler 00000026

Symbol: I2C0_IRQHandler
   Definitions
      At line 399 in file RTE\Device\MAX32655_Cortex-M4\startup_max32655.s
   Uses
      At line 111 in file RTE\Device\MAX32655_Cortex-M4\startup_max32655.s
      At line 294 in file RTE\Device\MAX32655_Cortex-M4\startup_max32655.s

I2C1_IRQHandler 00000026

Symbol: I2C1_IRQHandler
   Definitions
      At line 422 in file RTE\Device\MAX32655_Cortex-M4\startup_max32655.s
   Uses
      At line 134 in file RTE\Device\MAX32655_Cortex-M4\startup_max32655.s
      At line 317 in file RTE\Device\MAX32655_Cortex-M4\startup_max32655.s

I2C2_IRQHandler 00000026

Symbol: I2C2_IRQHandler
   Definitions
      At line 448 in file RTE\Device\MAX32655_Cortex-M4\startup_max32655.s
   Uses
      At line 160 in file RTE\Device\MAX32655_Cortex-M4\startup_max32655.s
      At line 343 in file RTE\Device\MAX32655_Cortex-M4\startup_max32655.s

I2S_IRQHandler 00000026

Symbol: I2S_IRQHandler
   Definitions
      At line 485 in file RTE\Device\MAX32655_Cortex-M4\startup_max32655.s
   Uses
      At line 197 in file RTE\Device\MAX32655_Cortex-M4\startup_max32655.s
      At line 380 in file RTE\Device\MAX32655_Cortex-M4\startup_max32655.s

MemManage_Handler 0000001A

Symbol: MemManage_Handler
   Definitions
      At line 242 in file RTE\Device\MAX32655_Cortex-M4\startup_max32655.s
   Uses
      At line 84 in file RTE\Device\MAX32655_Cortex-M4\startup_max32655.s
      At line 243 in file RTE\Device\MAX32655_Cortex-M4\startup_max32655.s

NMI_Handler 00000014

Symbol: NMI_Handler
   Definitions
      At line 230 in file RTE\Device\MAX32655_Cortex-M4\startup_max32655.s
   Uses
      At line 82 in file RTE\Device\MAX32655_Cortex-M4\startup_max32655.s
      At line 231 in file RTE\Device\MAX32655_Cortex-M4\startup_max32655.s
      At line 232 in file RTE\Device\MAX32655_Cortex-M4\startup_max32655.s

OWM_IRQHandler 00000026

Symbol: OWM_IRQHandler
   Definitions



ARM Macro Assembler    Page 7 Alphabetic symbol ordering
Relocatable symbols

      At line 453 in file RTE\Device\MAX32655_Cortex-M4\startup_max32655.s
   Uses
      At line 165 in file RTE\Device\MAX32655_Cortex-M4\startup_max32655.s
      At line 348 in file RTE\Device\MAX32655_Cortex-M4\startup_max32655.s

PF_IRQHandler 00000026

Symbol: PF_IRQHandler
   Definitions
      At line 386 in file RTE\Device\MAX32655_Cortex-M4\startup_max32655.s
   Uses
      At line 98 in file RTE\Device\MAX32655_Cortex-M4\startup_max32655.s
      At line 281 in file RTE\Device\MAX32655_Cortex-M4\startup_max32655.s

PT_IRQHandler 00000026

Symbol: PT_IRQHandler
   Definitions
      At line 445 in file RTE\Device\MAX32655_Cortex-M4\startup_max32655.s
   Uses
      At line 157 in file RTE\Device\MAX32655_Cortex-M4\startup_max32655.s
      At line 340 in file RTE\Device\MAX32655_Cortex-M4\startup_max32655.s

PendSV_Handler 00000024

Symbol: PendSV_Handler
   Definitions
      At line 272 in file RTE\Device\MAX32655_Cortex-M4\startup_max32655.s
   Uses
      At line 94 in file RTE\Device\MAX32655_Cortex-M4\startup_max32655.s
      At line 273 in file RTE\Device\MAX32655_Cortex-M4\startup_max32655.s

RISCV_IRQHandler 00000026

Symbol: RISCV_IRQHandler
   Definitions
      At line 449 in file RTE\Device\MAX32655_Cortex-M4\startup_max32655.s
   Uses
      At line 161 in file RTE\Device\MAX32655_Cortex-M4\startup_max32655.s
      At line 344 in file RTE\Device\MAX32655_Cortex-M4\startup_max32655.s

RSV02_IRQHandler 00000026

Symbol: RSV02_IRQHandler
   Definitions
      At line 388 in file RTE\Device\MAX32655_Cortex-M4\startup_max32655.s
   Uses
      At line 100 in file RTE\Device\MAX32655_Cortex-M4\startup_max32655.s
      At line 283 in file RTE\Device\MAX32655_Cortex-M4\startup_max32655.s

RSV11_IRQHandler 00000026

Symbol: RSV11_IRQHandler
   Definitions
      At line 397 in file RTE\Device\MAX32655_Cortex-M4\startup_max32655.s
   Uses
      At line 109 in file RTE\Device\MAX32655_Cortex-M4\startup_max32655.s
      At line 292 in file RTE\Device\MAX32655_Cortex-M4\startup_max32655.s




ARM Macro Assembler    Page 8 Alphabetic symbol ordering
Relocatable symbols

RSV12_IRQHandler 00000026

Symbol: RSV12_IRQHandler
   Definitions
      At line 398 in file RTE\Device\MAX32655_Cortex-M4\startup_max32655.s
   Uses
      At line 110 in file RTE\Device\MAX32655_Cortex-M4\startup_max32655.s
      At line 293 in file RTE\Device\MAX32655_Cortex-M4\startup_max32655.s

RSV17_IRQHandler 00000026

Symbol: RSV17_IRQHandler
   Definitions
      At line 403 in file RTE\Device\MAX32655_Cortex-M4\startup_max32655.s
   Uses
      At line 115 in file RTE\Device\MAX32655_Cortex-M4\startup_max32655.s
      At line 298 in file RTE\Device\MAX32655_Cortex-M4\startup_max32655.s

RSV18_IRQHandler 00000026

Symbol: RSV18_IRQHandler
   Definitions
      At line 404 in file RTE\Device\MAX32655_Cortex-M4\startup_max32655.s
   Uses
      At line 116 in file RTE\Device\MAX32655_Cortex-M4\startup_max32655.s
      At line 299 in file RTE\Device\MAX32655_Cortex-M4\startup_max32655.s

RSV19_IRQHandler 00000026

Symbol: RSV19_IRQHandler
   Definitions
      At line 405 in file RTE\Device\MAX32655_Cortex-M4\startup_max32655.s
   Uses
      At line 117 in file RTE\Device\MAX32655_Cortex-M4\startup_max32655.s
      At line 300 in file RTE\Device\MAX32655_Cortex-M4\startup_max32655.s

RSV21_IRQHandler 00000026

Symbol: RSV21_IRQHandler
   Definitions
      At line 407 in file RTE\Device\MAX32655_Cortex-M4\startup_max32655.s
   Uses
      At line 119 in file RTE\Device\MAX32655_Cortex-M4\startup_max32655.s
      At line 302 in file RTE\Device\MAX32655_Cortex-M4\startup_max32655.s

RSV22_IRQHandler 00000026

Symbol: RSV22_IRQHandler
   Definitions
      At line 408 in file RTE\Device\MAX32655_Cortex-M4\startup_max32655.s
   Uses
      At line 120 in file RTE\Device\MAX32655_Cortex-M4\startup_max32655.s
      At line 303 in file RTE\Device\MAX32655_Cortex-M4\startup_max32655.s

RSV27_IRQHandler 00000026

Symbol: RSV27_IRQHandler
   Definitions
      At line 413 in file RTE\Device\MAX32655_Cortex-M4\startup_max32655.s



ARM Macro Assembler    Page 9 Alphabetic symbol ordering
Relocatable symbols

   Uses
      At line 125 in file RTE\Device\MAX32655_Cortex-M4\startup_max32655.s
      At line 308 in file RTE\Device\MAX32655_Cortex-M4\startup_max32655.s

RSV32_IRQHandler 00000026

Symbol: RSV32_IRQHandler
   Definitions
      At line 418 in file RTE\Device\MAX32655_Cortex-M4\startup_max32655.s
   Uses
      At line 130 in file RTE\Device\MAX32655_Cortex-M4\startup_max32655.s
      At line 313 in file RTE\Device\MAX32655_Cortex-M4\startup_max32655.s

RSV33_IRQHandler 00000026

Symbol: RSV33_IRQHandler
   Definitions
      At line 419 in file RTE\Device\MAX32655_Cortex-M4\startup_max32655.s
   Uses
      At line 131 in file RTE\Device\MAX32655_Cortex-M4\startup_max32655.s
      At line 314 in file RTE\Device\MAX32655_Cortex-M4\startup_max32655.s

RSV35_IRQHandler 00000026

Symbol: RSV35_IRQHandler
   Definitions
      At line 421 in file RTE\Device\MAX32655_Cortex-M4\startup_max32655.s
   Uses
      At line 133 in file RTE\Device\MAX32655_Cortex-M4\startup_max32655.s
      At line 316 in file RTE\Device\MAX32655_Cortex-M4\startup_max32655.s

RSV37_IRQHandler 00000026

Symbol: RSV37_IRQHandler
   Definitions
      At line 423 in file RTE\Device\MAX32655_Cortex-M4\startup_max32655.s
   Uses
      At line 135 in file RTE\Device\MAX32655_Cortex-M4\startup_max32655.s
      At line 318 in file RTE\Device\MAX32655_Cortex-M4\startup_max32655.s

RSV38_IRQHandler 00000026

Symbol: RSV38_IRQHandler
   Definitions
      At line 424 in file RTE\Device\MAX32655_Cortex-M4\startup_max32655.s
   Uses
      At line 136 in file RTE\Device\MAX32655_Cortex-M4\startup_max32655.s
      At line 319 in file RTE\Device\MAX32655_Cortex-M4\startup_max32655.s

RSV55_IRQHandler 00000026

Symbol: RSV55_IRQHandler
   Definitions
      At line 441 in file RTE\Device\MAX32655_Cortex-M4\startup_max32655.s
   Uses
      At line 153 in file RTE\Device\MAX32655_Cortex-M4\startup_max32655.s
      At line 336 in file RTE\Device\MAX32655_Cortex-M4\startup_max32655.s

RSV57_IRQHandler 00000026



ARM Macro Assembler    Page 10 Alphabetic symbol ordering
Relocatable symbols


Symbol: RSV57_IRQHandler
   Definitions
      At line 444 in file RTE\Device\MAX32655_Cortex-M4\startup_max32655.s
   Uses
      At line 156 in file RTE\Device\MAX32655_Cortex-M4\startup_max32655.s
      At line 339 in file RTE\Device\MAX32655_Cortex-M4\startup_max32655.s

RSV59_IRQHandler 00000026

Symbol: RSV59_IRQHandler
   Definitions
      At line 446 in file RTE\Device\MAX32655_Cortex-M4\startup_max32655.s
   Uses
      At line 158 in file RTE\Device\MAX32655_Cortex-M4\startup_max32655.s
      At line 341 in file RTE\Device\MAX32655_Cortex-M4\startup_max32655.s

RSV61_IRQHandler 00000026

Symbol: RSV61_IRQHandler
   Definitions
      At line 447 in file RTE\Device\MAX32655_Cortex-M4\startup_max32655.s
   Uses
      At line 159 in file RTE\Device\MAX32655_Cortex-M4\startup_max32655.s
      At line 342 in file RTE\Device\MAX32655_Cortex-M4\startup_max32655.s

RSV64_IRQHandler 00000026

Symbol: RSV64_IRQHandler
   Definitions
      At line 450 in file RTE\Device\MAX32655_Cortex-M4\startup_max32655.s
   Uses
      At line 162 in file RTE\Device\MAX32655_Cortex-M4\startup_max32655.s
      At line 345 in file RTE\Device\MAX32655_Cortex-M4\startup_max32655.s

RSV65_IRQHandler 00000026

Symbol: RSV65_IRQHandler
   Definitions
      At line 451 in file RTE\Device\MAX32655_Cortex-M4\startup_max32655.s
   Uses
      At line 163 in file RTE\Device\MAX32655_Cortex-M4\startup_max32655.s
      At line 346 in file RTE\Device\MAX32655_Cortex-M4\startup_max32655.s

RSV66_IRQHandler 00000026

Symbol: RSV66_IRQHandler
   Definitions
      At line 452 in file RTE\Device\MAX32655_Cortex-M4\startup_max32655.s
   Uses
      At line 164 in file RTE\Device\MAX32655_Cortex-M4\startup_max32655.s
      At line 347 in file RTE\Device\MAX32655_Cortex-M4\startup_max32655.s

RSV68_IRQHandler 00000026

Symbol: RSV68_IRQHandler
   Definitions
      At line 454 in file RTE\Device\MAX32655_Cortex-M4\startup_max32655.s
   Uses



ARM Macro Assembler    Page 11 Alphabetic symbol ordering
Relocatable symbols

      At line 166 in file RTE\Device\MAX32655_Cortex-M4\startup_max32655.s
      At line 349 in file RTE\Device\MAX32655_Cortex-M4\startup_max32655.s

RSV69_IRQHandler 00000026

Symbol: RSV69_IRQHandler
   Definitions
      At line 455 in file RTE\Device\MAX32655_Cortex-M4\startup_max32655.s
   Uses
      At line 167 in file RTE\Device\MAX32655_Cortex-M4\startup_max32655.s
      At line 350 in file RTE\Device\MAX32655_Cortex-M4\startup_max32655.s

RSV70_IRQHandler 00000026

Symbol: RSV70_IRQHandler
   Definitions
      At line 456 in file RTE\Device\MAX32655_Cortex-M4\startup_max32655.s
   Uses
      At line 168 in file RTE\Device\MAX32655_Cortex-M4\startup_max32655.s
      At line 351 in file RTE\Device\MAX32655_Cortex-M4\startup_max32655.s

RSV71_IRQHandler 00000026

Symbol: RSV71_IRQHandler
   Definitions
      At line 457 in file RTE\Device\MAX32655_Cortex-M4\startup_max32655.s
   Uses
      At line 169 in file RTE\Device\MAX32655_Cortex-M4\startup_max32655.s
      At line 352 in file RTE\Device\MAX32655_Cortex-M4\startup_max32655.s

RSV72_IRQHandler 00000026

Symbol: RSV72_IRQHandler
   Definitions
      At line 458 in file RTE\Device\MAX32655_Cortex-M4\startup_max32655.s
   Uses
      At line 170 in file RTE\Device\MAX32655_Cortex-M4\startup_max32655.s
      At line 353 in file RTE\Device\MAX32655_Cortex-M4\startup_max32655.s

RSV73_IRQHandler 00000026

Symbol: RSV73_IRQHandler
   Definitions
      At line 459 in file RTE\Device\MAX32655_Cortex-M4\startup_max32655.s
   Uses
      At line 171 in file RTE\Device\MAX32655_Cortex-M4\startup_max32655.s
      At line 354 in file RTE\Device\MAX32655_Cortex-M4\startup_max32655.s

RSV74_IRQHandler 00000026

Symbol: RSV74_IRQHandler
   Definitions
      At line 460 in file RTE\Device\MAX32655_Cortex-M4\startup_max32655.s
   Uses
      At line 172 in file RTE\Device\MAX32655_Cortex-M4\startup_max32655.s
      At line 355 in file RTE\Device\MAX32655_Cortex-M4\startup_max32655.s

RSV75_IRQHandler 00000026




ARM Macro Assembler    Page 12 Alphabetic symbol ordering
Relocatable symbols

Symbol: RSV75_IRQHandler
   Definitions
      At line 461 in file RTE\Device\MAX32655_Cortex-M4\startup_max32655.s
   Uses
      At line 173 in file RTE\Device\MAX32655_Cortex-M4\startup_max32655.s
      At line 356 in file RTE\Device\MAX32655_Cortex-M4\startup_max32655.s

RSV76_IRQHandler 00000026

Symbol: RSV76_IRQHandler
   Definitions
      At line 462 in file RTE\Device\MAX32655_Cortex-M4\startup_max32655.s
   Uses
      At line 174 in file RTE\Device\MAX32655_Cortex-M4\startup_max32655.s
      At line 357 in file RTE\Device\MAX32655_Cortex-M4\startup_max32655.s

RSV77_IRQHandler 00000026

Symbol: RSV77_IRQHandler
   Definitions
      At line 463 in file RTE\Device\MAX32655_Cortex-M4\startup_max32655.s
   Uses
      At line 175 in file RTE\Device\MAX32655_Cortex-M4\startup_max32655.s
      At line 358 in file RTE\Device\MAX32655_Cortex-M4\startup_max32655.s

RSV78_IRQHandler 00000026

Symbol: RSV78_IRQHandler
   Definitions
      At line 464 in file RTE\Device\MAX32655_Cortex-M4\startup_max32655.s
   Uses
      At line 176 in file RTE\Device\MAX32655_Cortex-M4\startup_max32655.s
      At line 359 in file RTE\Device\MAX32655_Cortex-M4\startup_max32655.s

RSV79_IRQHandler 00000026

Symbol: RSV79_IRQHandler
   Definitions
      At line 465 in file RTE\Device\MAX32655_Cortex-M4\startup_max32655.s
   Uses
      At line 177 in file RTE\Device\MAX32655_Cortex-M4\startup_max32655.s
      At line 360 in file RTE\Device\MAX32655_Cortex-M4\startup_max32655.s

RSV80_IRQHandler 00000026

Symbol: RSV80_IRQHandler
   Definitions
      At line 466 in file RTE\Device\MAX32655_Cortex-M4\startup_max32655.s
   Uses
      At line 178 in file RTE\Device\MAX32655_Cortex-M4\startup_max32655.s
      At line 361 in file RTE\Device\MAX32655_Cortex-M4\startup_max32655.s

RSV81_IRQHandler 00000026

Symbol: RSV81_IRQHandler
   Definitions
      At line 467 in file RTE\Device\MAX32655_Cortex-M4\startup_max32655.s
   Uses
      At line 179 in file RTE\Device\MAX32655_Cortex-M4\startup_max32655.s



ARM Macro Assembler    Page 13 Alphabetic symbol ordering
Relocatable symbols

      At line 362 in file RTE\Device\MAX32655_Cortex-M4\startup_max32655.s

RSV85_IRQHandler 00000026

Symbol: RSV85_IRQHandler
   Definitions
      At line 471 in file RTE\Device\MAX32655_Cortex-M4\startup_max32655.s
   Uses
      At line 183 in file RTE\Device\MAX32655_Cortex-M4\startup_max32655.s
      At line 366 in file RTE\Device\MAX32655_Cortex-M4\startup_max32655.s

RSV86_IRQHandler 00000026

Symbol: RSV86_IRQHandler
   Definitions
      At line 472 in file RTE\Device\MAX32655_Cortex-M4\startup_max32655.s
   Uses
      At line 184 in file RTE\Device\MAX32655_Cortex-M4\startup_max32655.s
      At line 367 in file RTE\Device\MAX32655_Cortex-M4\startup_max32655.s

RSV87_IRQHandler 00000026

Symbol: RSV87_IRQHandler
   Definitions
      At line 473 in file RTE\Device\MAX32655_Cortex-M4\startup_max32655.s
   Uses
      At line 185 in file RTE\Device\MAX32655_Cortex-M4\startup_max32655.s
      At line 368 in file RTE\Device\MAX32655_Cortex-M4\startup_max32655.s

RSV89_IRQHandler 00000026

Symbol: RSV89_IRQHandler
   Definitions
      At line 475 in file RTE\Device\MAX32655_Cortex-M4\startup_max32655.s
   Uses
      At line 187 in file RTE\Device\MAX32655_Cortex-M4\startup_max32655.s
      At line 370 in file RTE\Device\MAX32655_Cortex-M4\startup_max32655.s

RSV90_IRQHandler 00000026

Symbol: RSV90_IRQHandler
   Definitions
      At line 476 in file RTE\Device\MAX32655_Cortex-M4\startup_max32655.s
   Uses
      At line 188 in file RTE\Device\MAX32655_Cortex-M4\startup_max32655.s
      At line 371 in file RTE\Device\MAX32655_Cortex-M4\startup_max32655.s

RSV91_IRQHandler 00000026

Symbol: RSV91_IRQHandler
   Definitions
      At line 477 in file RTE\Device\MAX32655_Cortex-M4\startup_max32655.s
   Uses
      At line 189 in file RTE\Device\MAX32655_Cortex-M4\startup_max32655.s
      At line 372 in file RTE\Device\MAX32655_Cortex-M4\startup_max32655.s

RSV92_IRQHandler 00000026

Symbol: RSV92_IRQHandler



ARM Macro Assembler    Page 14 Alphabetic symbol ordering
Relocatable symbols

   Definitions
      At line 478 in file RTE\Device\MAX32655_Cortex-M4\startup_max32655.s
   Uses
      At line 190 in file RTE\Device\MAX32655_Cortex-M4\startup_max32655.s
      At line 373 in file RTE\Device\MAX32655_Cortex-M4\startup_max32655.s

RSV93_IRQHandler 00000026

Symbol: RSV93_IRQHandler
   Definitions
      At line 479 in file RTE\Device\MAX32655_Cortex-M4\startup_max32655.s
   Uses
      At line 191 in file RTE\Device\MAX32655_Cortex-M4\startup_max32655.s
      At line 374 in file RTE\Device\MAX32655_Cortex-M4\startup_max32655.s

RSV94_IRQHandler 00000026

Symbol: RSV94_IRQHandler
   Definitions
      At line 480 in file RTE\Device\MAX32655_Cortex-M4\startup_max32655.s
   Uses
      At line 192 in file RTE\Device\MAX32655_Cortex-M4\startup_max32655.s
      At line 375 in file RTE\Device\MAX32655_Cortex-M4\startup_max32655.s

RSV95_IRQHandler 00000026

Symbol: RSV95_IRQHandler
   Definitions
      At line 481 in file RTE\Device\MAX32655_Cortex-M4\startup_max32655.s
   Uses
      At line 193 in file RTE\Device\MAX32655_Cortex-M4\startup_max32655.s
      At line 376 in file RTE\Device\MAX32655_Cortex-M4\startup_max32655.s

RSV96_IRQHandler 00000026

Symbol: RSV96_IRQHandler
   Definitions
      At line 482 in file RTE\Device\MAX32655_Cortex-M4\startup_max32655.s
   Uses
      At line 194 in file RTE\Device\MAX32655_Cortex-M4\startup_max32655.s
      At line 377 in file RTE\Device\MAX32655_Cortex-M4\startup_max32655.s

RTC_IRQHandler 00000026

Symbol: RTC_IRQHandler
   Definitions
      At line 389 in file RTE\Device\MAX32655_Cortex-M4\startup_max32655.s
   Uses
      At line 101 in file RTE\Device\MAX32655_Cortex-M4\startup_max32655.s
      At line 284 in file RTE\Device\MAX32655_Cortex-M4\startup_max32655.s

Reset_Handler 00000000

Symbol: Reset_Handler
   Definitions
      At line 207 in file RTE\Device\MAX32655_Cortex-M4\startup_max32655.s
   Uses
      At line 81 in file RTE\Device\MAX32655_Cortex-M4\startup_max32655.s
      At line 208 in file RTE\Device\MAX32655_Cortex-M4\startup_max32655.s



ARM Macro Assembler    Page 15 Alphabetic symbol ordering
Relocatable symbols


SIMO_IRQHandler 00000026

Symbol: SIMO_IRQHandler
   Definitions
      At line 470 in file RTE\Device\MAX32655_Cortex-M4\startup_max32655.s
   Uses
      At line 182 in file RTE\Device\MAX32655_Cortex-M4\startup_max32655.s
      At line 365 in file RTE\Device\MAX32655_Cortex-M4\startup_max32655.s

SPI0_IRQHandler 00000026

Symbol: SPI0_IRQHandler
   Definitions
      At line 442 in file RTE\Device\MAX32655_Cortex-M4\startup_max32655.s
   Uses
      At line 154 in file RTE\Device\MAX32655_Cortex-M4\startup_max32655.s
      At line 337 in file RTE\Device\MAX32655_Cortex-M4\startup_max32655.s

SPI1_IRQHandler 00000026

Symbol: SPI1_IRQHandler
   Definitions
      At line 402 in file RTE\Device\MAX32655_Cortex-M4\startup_max32655.s
   Uses
      At line 114 in file RTE\Device\MAX32655_Cortex-M4\startup_max32655.s
      At line 297 in file RTE\Device\MAX32655_Cortex-M4\startup_max32655.s

SVC_Handler 00000020

Symbol: SVC_Handler
   Definitions
      At line 260 in file RTE\Device\MAX32655_Cortex-M4\startup_max32655.s
   Uses
      At line 91 in file RTE\Device\MAX32655_Cortex-M4\startup_max32655.s
      At line 261 in file RTE\Device\MAX32655_Cortex-M4\startup_max32655.s

TMR0_IRQHandler 00000026

Symbol: TMR0_IRQHandler
   Definitions
      At line 391 in file RTE\Device\MAX32655_Cortex-M4\startup_max32655.s
   Uses
      At line 103 in file RTE\Device\MAX32655_Cortex-M4\startup_max32655.s
      At line 286 in file RTE\Device\MAX32655_Cortex-M4\startup_max32655.s

TMR1_IRQHandler 00000026

Symbol: TMR1_IRQHandler
   Definitions
      At line 392 in file RTE\Device\MAX32655_Cortex-M4\startup_max32655.s
   Uses
      At line 104 in file RTE\Device\MAX32655_Cortex-M4\startup_max32655.s
      At line 287 in file RTE\Device\MAX32655_Cortex-M4\startup_max32655.s

TMR2_IRQHandler 00000026

Symbol: TMR2_IRQHandler
   Definitions



ARM Macro Assembler    Page 16 Alphabetic symbol ordering
Relocatable symbols

      At line 393 in file RTE\Device\MAX32655_Cortex-M4\startup_max32655.s
   Uses
      At line 105 in file RTE\Device\MAX32655_Cortex-M4\startup_max32655.s
      At line 288 in file RTE\Device\MAX32655_Cortex-M4\startup_max32655.s

TMR3_IRQHandler 00000026

Symbol: TMR3_IRQHandler
   Definitions
      At line 394 in file RTE\Device\MAX32655_Cortex-M4\startup_max32655.s
   Uses
      At line 106 in file RTE\Device\MAX32655_Cortex-M4\startup_max32655.s
      At line 289 in file RTE\Device\MAX32655_Cortex-M4\startup_max32655.s

TMR4_IRQHandler 00000026

Symbol: TMR4_IRQHandler
   Definitions
      At line 395 in file RTE\Device\MAX32655_Cortex-M4\startup_max32655.s
   Uses
      At line 107 in file RTE\Device\MAX32655_Cortex-M4\startup_max32655.s
      At line 290 in file RTE\Device\MAX32655_Cortex-M4\startup_max32655.s

TMR5_IRQHandler 00000026

Symbol: TMR5_IRQHandler
   Definitions
      At line 396 in file RTE\Device\MAX32655_Cortex-M4\startup_max32655.s
   Uses
      At line 108 in file RTE\Device\MAX32655_Cortex-M4\startup_max32655.s
      At line 291 in file RTE\Device\MAX32655_Cortex-M4\startup_max32655.s

TRNG_IRQHandler 00000026

Symbol: TRNG_IRQHandler
   Definitions
      At line 390 in file RTE\Device\MAX32655_Cortex-M4\startup_max32655.s
   Uses
      At line 102 in file RTE\Device\MAX32655_Cortex-M4\startup_max32655.s
      At line 285 in file RTE\Device\MAX32655_Cortex-M4\startup_max32655.s

UART0_IRQHandler 00000026

Symbol: UART0_IRQHandler
   Definitions
      At line 400 in file RTE\Device\MAX32655_Cortex-M4\startup_max32655.s
   Uses
      At line 112 in file RTE\Device\MAX32655_Cortex-M4\startup_max32655.s
      At line 295 in file RTE\Device\MAX32655_Cortex-M4\startup_max32655.s

UART1_IRQHandler 00000026

Symbol: UART1_IRQHandler
   Definitions
      At line 401 in file RTE\Device\MAX32655_Cortex-M4\startup_max32655.s
   Uses
      At line 113 in file RTE\Device\MAX32655_Cortex-M4\startup_max32655.s
      At line 296 in file RTE\Device\MAX32655_Cortex-M4\startup_max32655.s




ARM Macro Assembler    Page 17 Alphabetic symbol ordering
Relocatable symbols

UART2_IRQHandler 00000026

Symbol: UART2_IRQHandler
   Definitions
      At line 420 in file RTE\Device\MAX32655_Cortex-M4\startup_max32655.s
   Uses
      At line 132 in file RTE\Device\MAX32655_Cortex-M4\startup_max32655.s
      At line 315 in file RTE\Device\MAX32655_Cortex-M4\startup_max32655.s

UART3_IRQHandler 00000026

Symbol: UART3_IRQHandler
   Definitions
      At line 474 in file RTE\Device\MAX32655_Cortex-M4\startup_max32655.s
   Uses
      At line 186 in file RTE\Device\MAX32655_Cortex-M4\startup_max32655.s
      At line 369 in file RTE\Device\MAX32655_Cortex-M4\startup_max32655.s

UsageFault_Handler 0000001E

Symbol: UsageFault_Handler
   Definitions
      At line 254 in file RTE\Device\MAX32655_Cortex-M4\startup_max32655.s
   Uses
      At line 86 in file RTE\Device\MAX32655_Cortex-M4\startup_max32655.s
      At line 255 in file RTE\Device\MAX32655_Cortex-M4\startup_max32655.s

WDT0_IRQHandler 00000026

Symbol: WDT0_IRQHandler
   Definitions
      At line 387 in file RTE\Device\MAX32655_Cortex-M4\startup_max32655.s
   Uses
      At line 99 in file RTE\Device\MAX32655_Cortex-M4\startup_max32655.s
      At line 282 in file RTE\Device\MAX32655_Cortex-M4\startup_max32655.s

WDT1_IRQHandler 00000026

Symbol: WDT1_IRQHandler
   Definitions
      At line 443 in file RTE\Device\MAX32655_Cortex-M4\startup_max32655.s
   Uses
      At line 155 in file RTE\Device\MAX32655_Cortex-M4\startup_max32655.s
      At line 338 in file RTE\Device\MAX32655_Cortex-M4\startup_max32655.s

WUT_IRQHandler 00000026

Symbol: WUT_IRQHandler
   Definitions
      At line 439 in file RTE\Device\MAX32655_Cortex-M4\startup_max32655.s
   Uses
      At line 151 in file RTE\Device\MAX32655_Cortex-M4\startup_max32655.s
      At line 334 in file RTE\Device\MAX32655_Cortex-M4\startup_max32655.s

__SPIN 0000000E

Symbol: __SPIN
   Definitions
      At line 223 in file RTE\Device\MAX32655_Cortex-M4\startup_max32655.s



ARM Macro Assembler    Page 18 Alphabetic symbol ordering
Relocatable symbols

   Uses
      At line 225 in file RTE\Device\MAX32655_Cortex-M4\startup_max32655.s
Comment: __SPIN used once
112 symbols



ARM Macro Assembler    Page 1 Alphabetic symbol ordering
Absolute symbols

Heap_Size 00008000

Symbol: Heap_Size
   Definitions
      At line 58 in file RTE\Device\MAX32655_Cortex-M4\startup_max32655.s
   Uses
      At line 62 in file RTE\Device\MAX32655_Cortex-M4\startup_max32655.s
Comment: Heap_Size used once
Stack_Size 00008000

Symbol: Stack_Size
   Definitions
      At line 46 in file RTE\Device\MAX32655_Cortex-M4\startup_max32655.s
   Uses
      At line 50 in file RTE\Device\MAX32655_Cortex-M4\startup_max32655.s
Comment: Stack_Size used once
__Vectors_Size 000001D0

Symbol: __Vectors_Size
   Definitions
      At line 203 in file RTE\Device\MAX32655_Cortex-M4\startup_max32655.s
   Uses
      At line 74 in file RTE\Device\MAX32655_Cortex-M4\startup_max32655.s
Comment: __Vectors_Size used once
__isr_vector_Size 000001D0

Symbol: __isr_vector_Size
   Definitions
      At line 200 in file RTE\Device\MAX32655_Cortex-M4\startup_max32655.s
   Uses
      At line 203 in file RTE\Device\MAX32655_Cortex-M4\startup_max32655.s
Comment: __isr_vector_Size used once
4 symbols



ARM Macro Assembler    Page 1 Alphabetic symbol ordering
External symbols

PreInit 00000000

Symbol: PreInit
   Definitions
      At line 209 in file RTE\Device\MAX32655_Cortex-M4\startup_max32655.s
   Uses
      At line 216 in file RTE\Device\MAX32655_Cortex-M4\startup_max32655.s
Comment: PreInit used once
SysTick_Handler 00000000

Symbol: SysTick_Handler
   Definitions
      At line 76 in file RTE\Device\MAX32655_Cortex-M4\startup_max32655.s
   Uses
      At line 95 in file RTE\Device\MAX32655_Cortex-M4\startup_max32655.s
Comment: SysTick_Handler used once
__main 00000000

Symbol: __main
   Definitions
      At line 210 in file RTE\Device\MAX32655_Cortex-M4\startup_max32655.s
   Uses
      At line 221 in file RTE\Device\MAX32655_Cortex-M4\startup_max32655.s
Comment: __main used once
3 symbols
469 symbols in table
